
sketch_feb03a.elf:     file format elf32-avr

Sections:
Idx Name          Size      VMA       LMA       File off  Algn
  0 .data         000004ec  00800100  00003cc2  00003d56  2**0
                  CONTENTS, ALLOC, LOAD, DATA
  1 .text         00003cc2  00000000  00000000  00000094  2**1
                  CONTENTS, ALLOC, LOAD, READONLY, CODE
  2 .bss          000001d5  008005ec  008005ec  00004242  2**0
                  ALLOC
  3 .comment      00000030  00000000  00000000  00004242  2**0
                  CONTENTS, READONLY
  4 .note.gnu.avr.deviceinfo 00000040  00000000  00000000  00004274  2**2
                  CONTENTS, READONLY
  5 .debug_aranges 00000b78  00000000  00000000  000042b4  2**0
                  CONTENTS, READONLY, DEBUGGING
  6 .debug_info   0001d2a2  00000000  00000000  00004e2c  2**0
                  CONTENTS, READONLY, DEBUGGING
  7 .debug_abbrev 00003a8b  00000000  00000000  000220ce  2**0
                  CONTENTS, READONLY, DEBUGGING
  8 .debug_line   00006c05  00000000  00000000  00025b59  2**0
                  CONTENTS, READONLY, DEBUGGING
  9 .debug_frame  00002e34  00000000  00000000  0002c760  2**2
                  CONTENTS, READONLY, DEBUGGING
 10 .debug_str    00003f96  00000000  00000000  0002f594  2**0
                  CONTENTS, READONLY, DEBUGGING
 11 .debug_loc    0001445e  00000000  00000000  0003352a  2**0
                  CONTENTS, READONLY, DEBUGGING
 12 .debug_ranges 00000ee8  00000000  00000000  00047988  2**0
                  CONTENTS, READONLY, DEBUGGING

Disassembly of section .text:

00000000 <__vectors>:
       0:	0c 94 e0 02 	jmp	0x5c0	; 0x5c0 <__dtors_end>
       4:	0c 94 08 03 	jmp	0x610	; 0x610 <__bad_interrupt>
       8:	0c 94 08 03 	jmp	0x610	; 0x610 <__bad_interrupt>
       c:	0c 94 08 03 	jmp	0x610	; 0x610 <__bad_interrupt>
      10:	0c 94 08 03 	jmp	0x610	; 0x610 <__bad_interrupt>
      14:	0c 94 08 03 	jmp	0x610	; 0x610 <__bad_interrupt>
      18:	0c 94 08 03 	jmp	0x610	; 0x610 <__bad_interrupt>
      1c:	0c 94 08 03 	jmp	0x610	; 0x610 <__bad_interrupt>
      20:	0c 94 08 03 	jmp	0x610	; 0x610 <__bad_interrupt>
      24:	0c 94 08 03 	jmp	0x610	; 0x610 <__bad_interrupt>
      28:	0c 94 08 03 	jmp	0x610	; 0x610 <__bad_interrupt>
      2c:	0c 94 2c 15 	jmp	0x2a58	; 0x2a58 <__vector_11>
      30:	0c 94 08 03 	jmp	0x610	; 0x610 <__bad_interrupt>
      34:	0c 94 08 03 	jmp	0x610	; 0x610 <__bad_interrupt>
      38:	0c 94 08 03 	jmp	0x610	; 0x610 <__bad_interrupt>
      3c:	0c 94 08 03 	jmp	0x610	; 0x610 <__bad_interrupt>
      40:	0c 94 15 18 	jmp	0x302a	; 0x302a <__vector_16>
      44:	0c 94 08 03 	jmp	0x610	; 0x610 <__bad_interrupt>
      48:	0c 94 9f 16 	jmp	0x2d3e	; 0x2d3e <__vector_18>
      4c:	0c 94 d1 16 	jmp	0x2da2	; 0x2da2 <__vector_19>
      50:	0c 94 08 03 	jmp	0x610	; 0x610 <__bad_interrupt>
      54:	0c 94 08 03 	jmp	0x610	; 0x610 <__bad_interrupt>
      58:	0c 94 08 03 	jmp	0x610	; 0x610 <__bad_interrupt>
      5c:	0c 94 08 03 	jmp	0x610	; 0x610 <__bad_interrupt>
      60:	0c 94 fe 11 	jmp	0x23fc	; 0x23fc <__vector_24>
      64:	0c 94 08 03 	jmp	0x610	; 0x610 <__bad_interrupt>

00000068 <__trampolines_end>:
      68:	00 00       	nop
      6a:	00 00       	nop
      6c:	00 3e       	cpi	r16, 0xE0	; 224
      6e:	5b 4f       	sbci	r21, 0xFB	; 251
      70:	5b 3e       	cpi	r21, 0xEB	; 235
      72:	3e 6b       	ori	r19, 0xBE	; 190
      74:	4f 6b       	ori	r20, 0xBF	; 191
      76:	3e 1c       	adc	r3, r14
      78:	3e 7c       	andi	r19, 0xCE	; 206
      7a:	3e 1c       	adc	r3, r14
      7c:	18 3c       	cpi	r17, 0xC8	; 200
      7e:	7e 3c       	cpi	r23, 0xCE	; 206
      80:	18 1c       	adc	r1, r8
      82:	57 7d       	andi	r21, 0xD7	; 215
      84:	57 1c       	adc	r5, r7
      86:	1c 5e       	subi	r17, 0xEC	; 236
      88:	7f 5e       	subi	r23, 0xEF	; 239
      8a:	1c 00       	.word	0x001c	; ????
      8c:	18 3c       	cpi	r17, 0xC8	; 200
      8e:	18 00       	.word	0x0018	; ????
      90:	ff e7       	ldi	r31, 0x7F	; 127
      92:	c3 e7       	ldi	r28, 0x73	; 115
      94:	ff 00       	.word	0x00ff	; ????
      96:	18 24       	eor	r1, r8
      98:	18 00       	.word	0x0018	; ????
      9a:	ff e7       	ldi	r31, 0x7F	; 127
      9c:	db e7       	ldi	r29, 0x7B	; 123
      9e:	ff 30       	cpi	r31, 0x0F	; 15
      a0:	48 3a       	cpi	r20, 0xA8	; 168
      a2:	06 0e       	add	r0, r22
      a4:	26 29       	or	r18, r6
      a6:	79 29       	or	r23, r9
      a8:	26 40       	sbci	r18, 0x06	; 6
      aa:	7f 05       	cpc	r23, r15
      ac:	05 07       	cpc	r16, r21
      ae:	40 7f       	andi	r20, 0xF0	; 240
      b0:	05 25       	eor	r16, r5
      b2:	3f 5a       	subi	r19, 0xAF	; 175
      b4:	3c e7       	ldi	r19, 0x7C	; 124
      b6:	3c 5a       	subi	r19, 0xAC	; 172
      b8:	7f 3e       	cpi	r23, 0xEF	; 239
      ba:	1c 1c       	adc	r1, r12
      bc:	08 08       	sbc	r0, r8
      be:	1c 1c       	adc	r1, r12
      c0:	3e 7f       	andi	r19, 0xFE	; 254
      c2:	14 22       	and	r1, r20
      c4:	7f 22       	and	r7, r31
      c6:	14 5f       	subi	r17, 0xF4	; 244
      c8:	5f 00       	.word	0x005f	; ????
      ca:	5f 5f       	subi	r21, 0xFF	; 255
      cc:	06 09       	sbc	r16, r6
      ce:	7f 01       	movw	r14, r30
      d0:	7f 00       	.word	0x007f	; ????
      d2:	66 89       	ldd	r22, Z+22	; 0x16
      d4:	95 6a       	ori	r25, 0xA5	; 165
      d6:	60 60       	ori	r22, 0x00	; 0
      d8:	60 60       	ori	r22, 0x00	; 0
      da:	60 94       	com	r6
      dc:	a2 ff       	sbrs	r26, 2
      de:	a2 94       	swap	r10
      e0:	08 04       	cpc	r0, r8
      e2:	7e 04       	cpc	r7, r14
      e4:	08 10       	cpse	r0, r8
      e6:	20 7e       	andi	r18, 0xE0	; 224
      e8:	20 10       	cpse	r2, r0
      ea:	08 08       	sbc	r0, r8
      ec:	2a 1c       	adc	r2, r10
      ee:	08 08       	sbc	r0, r8
      f0:	1c 2a       	or	r1, r28
      f2:	08 08       	sbc	r0, r8
      f4:	1e 10       	cpse	r1, r14
      f6:	10 10       	cpse	r1, r0
      f8:	10 0c       	add	r1, r0
      fa:	1e 0c       	add	r1, r14
      fc:	1e 0c       	add	r1, r14
      fe:	30 38       	cpi	r19, 0x80	; 128
     100:	3e 38       	cpi	r19, 0x8E	; 142
     102:	30 06       	cpc	r3, r16
     104:	0e 3e       	cpi	r16, 0xEE	; 238
     106:	0e 06       	cpc	r0, r30
     108:	00 00       	nop
     10a:	00 00       	nop
     10c:	00 00       	nop
     10e:	00 5f       	subi	r16, 0xF0	; 240
     110:	00 00       	nop
     112:	00 07       	cpc	r16, r16
     114:	00 07       	cpc	r16, r16
     116:	00 14       	cp	r0, r0
     118:	7f 14       	cp	r7, r15
     11a:	7f 14       	cp	r7, r15
     11c:	24 2a       	or	r2, r20
     11e:	7f 2a       	or	r7, r31
     120:	12 23       	and	r17, r18
     122:	13 08       	sbc	r1, r3
     124:	64 62       	ori	r22, 0x24	; 36
     126:	36 49       	sbci	r19, 0x96	; 150
     128:	56 20       	and	r5, r6
     12a:	50 00       	.word	0x0050	; ????
     12c:	08 07       	cpc	r16, r24
     12e:	03 00       	.word	0x0003	; ????
     130:	00 1c       	adc	r0, r0
     132:	22 41       	sbci	r18, 0x12	; 18
     134:	00 00       	nop
     136:	41 22       	and	r4, r17
     138:	1c 00       	.word	0x001c	; ????
     13a:	2a 1c       	adc	r2, r10
     13c:	7f 1c       	adc	r7, r15
     13e:	2a 08       	sbc	r2, r10
     140:	08 3e       	cpi	r16, 0xE8	; 232
     142:	08 08       	sbc	r0, r8
     144:	00 80       	ld	r0, Z
     146:	70 30       	cpi	r23, 0x00	; 0
     148:	00 08       	sbc	r0, r0
     14a:	08 08       	sbc	r0, r8
     14c:	08 08       	sbc	r0, r8
     14e:	00 00       	nop
     150:	60 60       	ori	r22, 0x00	; 0
     152:	00 20       	and	r0, r0
     154:	10 08       	sbc	r1, r0
     156:	04 02       	muls	r16, r20
     158:	3e 51       	subi	r19, 0x1E	; 30
     15a:	49 45       	sbci	r20, 0x59	; 89
     15c:	3e 00       	.word	0x003e	; ????
     15e:	42 7f       	andi	r20, 0xF2	; 242
     160:	40 00       	.word	0x0040	; ????
     162:	72 49       	sbci	r23, 0x92	; 146
     164:	49 49       	sbci	r20, 0x99	; 153
     166:	46 21       	and	r20, r6
     168:	41 49       	sbci	r20, 0x91	; 145
     16a:	4d 33       	cpi	r20, 0x3D	; 61
     16c:	18 14       	cp	r1, r8
     16e:	12 7f       	andi	r17, 0xF2	; 242
     170:	10 27       	eor	r17, r16
     172:	45 45       	sbci	r20, 0x55	; 85
     174:	45 39       	cpi	r20, 0x95	; 149
     176:	3c 4a       	sbci	r19, 0xAC	; 172
     178:	49 49       	sbci	r20, 0x99	; 153
     17a:	31 41       	sbci	r19, 0x11	; 17
     17c:	21 11       	cpse	r18, r1
     17e:	09 07       	cpc	r16, r25
     180:	36 49       	sbci	r19, 0x96	; 150
     182:	49 49       	sbci	r20, 0x99	; 153
     184:	36 46       	sbci	r19, 0x66	; 102
     186:	49 49       	sbci	r20, 0x99	; 153
     188:	29 1e       	adc	r2, r25
     18a:	00 00       	nop
     18c:	14 00       	.word	0x0014	; ????
     18e:	00 00       	nop
     190:	40 34       	cpi	r20, 0x40	; 64
     192:	00 00       	nop
     194:	00 08       	sbc	r0, r0
     196:	14 22       	and	r1, r20
     198:	41 14       	cp	r4, r1
     19a:	14 14       	cp	r1, r4
     19c:	14 14       	cp	r1, r4
     19e:	00 41       	sbci	r16, 0x10	; 16
     1a0:	22 14       	cp	r2, r2
     1a2:	08 02       	muls	r16, r24
     1a4:	01 59       	subi	r16, 0x91	; 145
     1a6:	09 06       	cpc	r0, r25
     1a8:	3e 41       	sbci	r19, 0x1E	; 30
     1aa:	5d 59       	subi	r21, 0x9D	; 157
     1ac:	4e 7c       	andi	r20, 0xCE	; 206
     1ae:	12 11       	cpse	r17, r2
     1b0:	12 7c       	andi	r17, 0xC2	; 194
     1b2:	7f 49       	sbci	r23, 0x9F	; 159
     1b4:	49 49       	sbci	r20, 0x99	; 153
     1b6:	36 3e       	cpi	r19, 0xE6	; 230
     1b8:	41 41       	sbci	r20, 0x11	; 17
     1ba:	41 22       	and	r4, r17
     1bc:	7f 41       	sbci	r23, 0x1F	; 31
     1be:	41 41       	sbci	r20, 0x11	; 17
     1c0:	3e 7f       	andi	r19, 0xFE	; 254
     1c2:	49 49       	sbci	r20, 0x99	; 153
     1c4:	49 41       	sbci	r20, 0x19	; 25
     1c6:	7f 09       	sbc	r23, r15
     1c8:	09 09       	sbc	r16, r9
     1ca:	01 3e       	cpi	r16, 0xE1	; 225
     1cc:	41 41       	sbci	r20, 0x11	; 17
     1ce:	51 73       	andi	r21, 0x31	; 49
     1d0:	7f 08       	sbc	r7, r15
     1d2:	08 08       	sbc	r0, r8
     1d4:	7f 00       	.word	0x007f	; ????
     1d6:	41 7f       	andi	r20, 0xF1	; 241
     1d8:	41 00       	.word	0x0041	; ????
     1da:	20 40       	sbci	r18, 0x00	; 0
     1dc:	41 3f       	cpi	r20, 0xF1	; 241
     1de:	01 7f       	andi	r16, 0xF1	; 241
     1e0:	08 14       	cp	r0, r8
     1e2:	22 41       	sbci	r18, 0x12	; 18
     1e4:	7f 40       	sbci	r23, 0x0F	; 15
     1e6:	40 40       	sbci	r20, 0x00	; 0
     1e8:	40 7f       	andi	r20, 0xF0	; 240
     1ea:	02 1c       	adc	r0, r2
     1ec:	02 7f       	andi	r16, 0xF2	; 242
     1ee:	7f 04       	cpc	r7, r15
     1f0:	08 10       	cpse	r0, r8
     1f2:	7f 3e       	cpi	r23, 0xEF	; 239
     1f4:	41 41       	sbci	r20, 0x11	; 17
     1f6:	41 3e       	cpi	r20, 0xE1	; 225
     1f8:	7f 09       	sbc	r23, r15
     1fa:	09 09       	sbc	r16, r9
     1fc:	06 3e       	cpi	r16, 0xE6	; 230
     1fe:	41 51       	subi	r20, 0x11	; 17
     200:	21 5e       	subi	r18, 0xE1	; 225
     202:	7f 09       	sbc	r23, r15
     204:	19 29       	or	r17, r9
     206:	46 26       	eor	r4, r22
     208:	49 49       	sbci	r20, 0x99	; 153
     20a:	49 32       	cpi	r20, 0x29	; 41
     20c:	03 01       	movw	r0, r6
     20e:	7f 01       	movw	r14, r30
     210:	03 3f       	cpi	r16, 0xF3	; 243
     212:	40 40       	sbci	r20, 0x00	; 0
     214:	40 3f       	cpi	r20, 0xF0	; 240
     216:	1f 20       	and	r1, r15
     218:	40 20       	and	r4, r0
     21a:	1f 3f       	cpi	r17, 0xFF	; 255
     21c:	40 38       	cpi	r20, 0x80	; 128
     21e:	40 3f       	cpi	r20, 0xF0	; 240
     220:	63 14       	cp	r6, r3
     222:	08 14       	cp	r0, r8
     224:	63 03       	mulsu	r22, r19
     226:	04 78       	andi	r16, 0x84	; 132
     228:	04 03       	mulsu	r16, r20
     22a:	61 59       	subi	r22, 0x91	; 145
     22c:	49 4d       	sbci	r20, 0xD9	; 217
     22e:	43 00       	.word	0x0043	; ????
     230:	7f 41       	sbci	r23, 0x1F	; 31
     232:	41 41       	sbci	r20, 0x11	; 17
     234:	02 04       	cpc	r0, r2
     236:	08 10       	cpse	r0, r8
     238:	20 00       	.word	0x0020	; ????
     23a:	41 41       	sbci	r20, 0x11	; 17
     23c:	41 7f       	andi	r20, 0xF1	; 241
     23e:	04 02       	muls	r16, r20
     240:	01 02       	muls	r16, r17
     242:	04 40       	sbci	r16, 0x04	; 4
     244:	40 40       	sbci	r20, 0x00	; 0
     246:	40 40       	sbci	r20, 0x00	; 0
     248:	00 03       	mulsu	r16, r16
     24a:	07 08       	sbc	r0, r7
     24c:	00 20       	and	r0, r0
     24e:	54 54       	subi	r21, 0x44	; 68
     250:	78 40       	sbci	r23, 0x08	; 8
     252:	7f 28       	or	r7, r15
     254:	44 44       	sbci	r20, 0x44	; 68
     256:	38 38       	cpi	r19, 0x88	; 136
     258:	44 44       	sbci	r20, 0x44	; 68
     25a:	44 28       	or	r4, r4
     25c:	38 44       	sbci	r19, 0x48	; 72
     25e:	44 28       	or	r4, r4
     260:	7f 38       	cpi	r23, 0x8F	; 143
     262:	54 54       	subi	r21, 0x44	; 68
     264:	54 18       	sub	r5, r4
     266:	00 08       	sbc	r0, r0
     268:	7e 09       	sbc	r23, r14
     26a:	02 18       	sub	r0, r2
     26c:	a4 a4       	ldd	r10, Z+44	; 0x2c
     26e:	9c 78       	andi	r25, 0x8C	; 140
     270:	7f 08       	sbc	r7, r15
     272:	04 04       	cpc	r0, r4
     274:	78 00       	.word	0x0078	; ????
     276:	44 7d       	andi	r20, 0xD4	; 212
     278:	40 00       	.word	0x0040	; ????
     27a:	20 40       	sbci	r18, 0x00	; 0
     27c:	40 3d       	cpi	r20, 0xD0	; 208
     27e:	00 7f       	andi	r16, 0xF0	; 240
     280:	10 28       	or	r1, r0
     282:	44 00       	.word	0x0044	; ????
     284:	00 41       	sbci	r16, 0x10	; 16
     286:	7f 40       	sbci	r23, 0x0F	; 15
     288:	00 7c       	andi	r16, 0xC0	; 192
     28a:	04 78       	andi	r16, 0x84	; 132
     28c:	04 78       	andi	r16, 0x84	; 132
     28e:	7c 08       	sbc	r7, r12
     290:	04 04       	cpc	r0, r4
     292:	78 38       	cpi	r23, 0x88	; 136
     294:	44 44       	sbci	r20, 0x44	; 68
     296:	44 38       	cpi	r20, 0x84	; 132
     298:	fc 18       	sub	r15, r12
     29a:	24 24       	eor	r2, r4
     29c:	18 18       	sub	r1, r8
     29e:	24 24       	eor	r2, r4
     2a0:	18 fc       	.word	0xfc18	; ????
     2a2:	7c 08       	sbc	r7, r12
     2a4:	04 04       	cpc	r0, r4
     2a6:	08 48       	sbci	r16, 0x88	; 136
     2a8:	54 54       	subi	r21, 0x44	; 68
     2aa:	54 24       	eor	r5, r4
     2ac:	04 04       	cpc	r0, r4
     2ae:	3f 44       	sbci	r19, 0x4F	; 79
     2b0:	24 3c       	cpi	r18, 0xC4	; 196
     2b2:	40 40       	sbci	r20, 0x00	; 0
     2b4:	20 7c       	andi	r18, 0xC0	; 192
     2b6:	1c 20       	and	r1, r12
     2b8:	40 20       	and	r4, r0
     2ba:	1c 3c       	cpi	r17, 0xCC	; 204
     2bc:	40 30       	cpi	r20, 0x00	; 0
     2be:	40 3c       	cpi	r20, 0xC0	; 192
     2c0:	44 28       	or	r4, r4
     2c2:	10 28       	or	r1, r0
     2c4:	44 4c       	sbci	r20, 0xC4	; 196
     2c6:	90 90 90 7c 	lds	r9, 0x7C90	; 0x807c90 <__bss_end+0x74cf>
     2ca:	44 64       	ori	r20, 0x44	; 68
     2cc:	54 4c       	sbci	r21, 0xC4	; 196
     2ce:	44 00       	.word	0x0044	; ????
     2d0:	08 36       	cpi	r16, 0x68	; 104
     2d2:	41 00       	.word	0x0041	; ????
     2d4:	00 00       	nop
     2d6:	77 00       	.word	0x0077	; ????
     2d8:	00 00       	nop
     2da:	41 36       	cpi	r20, 0x61	; 97
     2dc:	08 00       	.word	0x0008	; ????
     2de:	02 01       	movw	r0, r4
     2e0:	02 04       	cpc	r0, r2
     2e2:	02 3c       	cpi	r16, 0xC2	; 194
     2e4:	26 23       	and	r18, r22
     2e6:	26 3c       	cpi	r18, 0xC6	; 198
     2e8:	1e a1       	ldd	r17, Y+38	; 0x26
     2ea:	a1 61       	ori	r26, 0x11	; 17
     2ec:	12 3a       	cpi	r17, 0xA2	; 162
     2ee:	40 40       	sbci	r20, 0x00	; 0
     2f0:	20 7a       	andi	r18, 0xA0	; 160
     2f2:	38 54       	subi	r19, 0x48	; 72
     2f4:	54 55       	subi	r21, 0x54	; 84
     2f6:	59 21       	and	r21, r9
     2f8:	55 55       	subi	r21, 0x55	; 85
     2fa:	79 41       	sbci	r23, 0x19	; 25
     2fc:	22 54       	subi	r18, 0x42	; 66
     2fe:	54 78       	andi	r21, 0x84	; 132
     300:	42 21       	and	r20, r2
     302:	55 54       	subi	r21, 0x45	; 69
     304:	78 40       	sbci	r23, 0x08	; 8
     306:	20 54       	subi	r18, 0x40	; 64
     308:	55 79       	andi	r21, 0x95	; 149
     30a:	40 0c       	add	r4, r0
     30c:	1e 52       	subi	r17, 0x2E	; 46
     30e:	72 12       	cpse	r7, r18
     310:	39 55       	subi	r19, 0x59	; 89
     312:	55 55       	subi	r21, 0x55	; 85
     314:	59 39       	cpi	r21, 0x99	; 153
     316:	54 54       	subi	r21, 0x44	; 68
     318:	54 59       	subi	r21, 0x94	; 148
     31a:	39 55       	subi	r19, 0x59	; 89
     31c:	54 54       	subi	r21, 0x44	; 68
     31e:	58 00       	.word	0x0058	; ????
     320:	00 45       	sbci	r16, 0x50	; 80
     322:	7c 41       	sbci	r23, 0x1C	; 28
     324:	00 02       	muls	r16, r16
     326:	45 7d       	andi	r20, 0xD5	; 213
     328:	42 00       	.word	0x0042	; ????
     32a:	01 45       	sbci	r16, 0x51	; 81
     32c:	7c 40       	sbci	r23, 0x0C	; 12
     32e:	7d 12       	cpse	r7, r29
     330:	11 12       	cpse	r1, r17
     332:	7d f0       	brhs	.+30     	; 0x352 <__trampolines_end+0x2ea>
     334:	28 25       	eor	r18, r8
     336:	28 f0       	brcs	.+10     	; 0x342 <__trampolines_end+0x2da>
     338:	7c 54       	subi	r23, 0x4C	; 76
     33a:	55 45       	sbci	r21, 0x55	; 85
     33c:	00 20       	and	r0, r0
     33e:	54 54       	subi	r21, 0x44	; 68
     340:	7c 54       	subi	r23, 0x4C	; 76
     342:	7c 0a       	sbc	r7, r28
     344:	09 7f       	andi	r16, 0xF9	; 249
     346:	49 32       	cpi	r20, 0x29	; 41
     348:	49 49       	sbci	r20, 0x99	; 153
     34a:	49 32       	cpi	r20, 0x29	; 41
     34c:	3a 44       	sbci	r19, 0x4A	; 74
     34e:	44 44       	sbci	r20, 0x44	; 68
     350:	3a 32       	cpi	r19, 0x2A	; 42
     352:	4a 48       	sbci	r20, 0x8A	; 138
     354:	48 30       	cpi	r20, 0x08	; 8
     356:	3a 41       	sbci	r19, 0x1A	; 26
     358:	41 21       	and	r20, r1
     35a:	7a 3a       	cpi	r23, 0xAA	; 170
     35c:	42 40       	sbci	r20, 0x02	; 2
     35e:	20 78       	andi	r18, 0x80	; 128
     360:	00 9d       	mul	r16, r0
     362:	a0 a0       	ldd	r10, Z+32	; 0x20
     364:	7d 3d       	cpi	r23, 0xDD	; 221
     366:	42 42       	sbci	r20, 0x22	; 34
     368:	42 3d       	cpi	r20, 0xD2	; 210
     36a:	3d 40       	sbci	r19, 0x0D	; 13
     36c:	40 40       	sbci	r20, 0x00	; 0
     36e:	3d 3c       	cpi	r19, 0xCD	; 205
     370:	24 ff       	sbrs	r18, 4
     372:	24 24       	eor	r2, r4
     374:	48 7e       	andi	r20, 0xE8	; 232
     376:	49 43       	sbci	r20, 0x39	; 57
     378:	66 2b       	or	r22, r22
     37a:	2f fc       	.word	0xfc2f	; ????
     37c:	2f 2b       	or	r18, r31
     37e:	ff 09       	sbc	r31, r15
     380:	29 f6       	brne	.-118    	; 0x30c <__trampolines_end+0x2a4>
     382:	20 c0       	rjmp	.+64     	; 0x3c4 <__trampolines_end+0x35c>
     384:	88 7e       	andi	r24, 0xE8	; 232
     386:	09 03       	fmul	r16, r17
     388:	20 54       	subi	r18, 0x40	; 64
     38a:	54 79       	andi	r21, 0x94	; 148
     38c:	41 00       	.word	0x0041	; ????
     38e:	00 44       	sbci	r16, 0x40	; 64
     390:	7d 41       	sbci	r23, 0x1D	; 29
     392:	30 48       	sbci	r19, 0x80	; 128
     394:	48 4a       	sbci	r20, 0xA8	; 168
     396:	32 38       	cpi	r19, 0x82	; 130
     398:	40 40       	sbci	r20, 0x00	; 0
     39a:	22 7a       	andi	r18, 0xA2	; 162
     39c:	00 7a       	andi	r16, 0xA0	; 160
     39e:	0a 0a       	sbc	r0, r26
     3a0:	72 7d       	andi	r23, 0xD2	; 210
     3a2:	0d 19       	sub	r16, r13
     3a4:	31 7d       	andi	r19, 0xD1	; 209
     3a6:	26 29       	or	r18, r6
     3a8:	29 2f       	mov	r18, r25
     3aa:	28 26       	eor	r2, r24
     3ac:	29 29       	or	r18, r9
     3ae:	29 26       	eor	r2, r25
     3b0:	30 48       	sbci	r19, 0x80	; 128
     3b2:	4d 40       	sbci	r20, 0x0D	; 13
     3b4:	20 38       	cpi	r18, 0x80	; 128
     3b6:	08 08       	sbc	r0, r8
     3b8:	08 08       	sbc	r0, r8
     3ba:	08 08       	sbc	r0, r8
     3bc:	08 08       	sbc	r0, r8
     3be:	38 2f       	mov	r19, r24
     3c0:	10 c8       	rjmp	.-4064   	; 0xfffff3e2 <__eeprom_end+0xff7ef3e2>
     3c2:	ac ba       	out	0x1c, r10	; 28
     3c4:	2f 10       	cpse	r2, r15
     3c6:	28 34       	cpi	r18, 0x48	; 72
     3c8:	fa 00       	.word	0x00fa	; ????
     3ca:	00 7b       	andi	r16, 0xB0	; 176
     3cc:	00 00       	nop
     3ce:	08 14       	cp	r0, r8
     3d0:	2a 14       	cp	r2, r10
     3d2:	22 22       	and	r2, r18
     3d4:	14 2a       	or	r1, r20
     3d6:	14 08       	sbc	r1, r4
     3d8:	55 00       	.word	0x0055	; ????
     3da:	55 00       	.word	0x0055	; ????
     3dc:	55 aa       	std	Z+53, r5	; 0x35
     3de:	55 aa       	std	Z+53, r5	; 0x35
     3e0:	55 aa       	std	Z+53, r5	; 0x35
     3e2:	ff 55       	subi	r31, 0x5F	; 95
     3e4:	ff 55       	subi	r31, 0x5F	; 95
     3e6:	ff 00       	.word	0x00ff	; ????
     3e8:	00 00       	nop
     3ea:	ff 00       	.word	0x00ff	; ????
     3ec:	10 10       	cpse	r1, r0
     3ee:	10 ff       	sbrs	r17, 0
     3f0:	00 14       	cp	r0, r0
     3f2:	14 14       	cp	r1, r4
     3f4:	ff 00       	.word	0x00ff	; ????
     3f6:	10 10       	cpse	r1, r0
     3f8:	ff 00       	.word	0x00ff	; ????
     3fa:	ff 10       	cpse	r15, r15
     3fc:	10 f0       	brcs	.+4      	; 0x402 <__FUSE_REGION_LENGTH__+0x2>
     3fe:	10 f0       	brcs	.+4      	; 0x404 <__FUSE_REGION_LENGTH__+0x4>
     400:	14 14       	cp	r1, r4
     402:	14 fc       	sbrc	r1, 4
     404:	00 14       	cp	r0, r0
     406:	14 f7       	brge	.-60     	; 0x3cc <__trampolines_end+0x364>
     408:	00 ff       	sbrs	r16, 0
     40a:	00 00       	nop
     40c:	ff 00       	.word	0x00ff	; ????
     40e:	ff 14       	cp	r15, r15
     410:	14 f4       	brge	.+4      	; 0x416 <__FUSE_REGION_LENGTH__+0x16>
     412:	04 fc       	sbrc	r0, 4
     414:	14 14       	cp	r1, r4
     416:	17 10       	cpse	r1, r7
     418:	1f 10       	cpse	r1, r15
     41a:	10 1f       	adc	r17, r16
     41c:	10 1f       	adc	r17, r16
     41e:	14 14       	cp	r1, r4
     420:	14 1f       	adc	r17, r20
     422:	00 10       	cpse	r0, r0
     424:	10 10       	cpse	r1, r0
     426:	f0 00       	.word	0x00f0	; ????
     428:	00 00       	nop
     42a:	00 1f       	adc	r16, r16
     42c:	10 10       	cpse	r1, r0
     42e:	10 10       	cpse	r1, r0
     430:	1f 10       	cpse	r1, r15
     432:	10 10       	cpse	r1, r0
     434:	10 f0       	brcs	.+4      	; 0x43a <__FUSE_REGION_LENGTH__+0x3a>
     436:	10 00       	.word	0x0010	; ????
     438:	00 00       	nop
     43a:	ff 10       	cpse	r15, r15
     43c:	10 10       	cpse	r1, r0
     43e:	10 10       	cpse	r1, r0
     440:	10 10       	cpse	r1, r0
     442:	10 10       	cpse	r1, r0
     444:	ff 10       	cpse	r15, r15
     446:	00 00       	nop
     448:	00 ff       	sbrs	r16, 0
     44a:	14 00       	.word	0x0014	; ????
     44c:	00 ff       	sbrs	r16, 0
     44e:	00 ff       	sbrs	r16, 0
     450:	00 00       	nop
     452:	1f 10       	cpse	r1, r15
     454:	17 00       	.word	0x0017	; ????
     456:	00 fc       	sbrc	r0, 0
     458:	04 f4       	brge	.+0      	; 0x45a <__FUSE_REGION_LENGTH__+0x5a>
     45a:	14 14       	cp	r1, r4
     45c:	17 10       	cpse	r1, r7
     45e:	17 14       	cp	r1, r7
     460:	14 f4       	brge	.+4      	; 0x466 <__FUSE_REGION_LENGTH__+0x66>
     462:	04 f4       	brge	.+0      	; 0x464 <__FUSE_REGION_LENGTH__+0x64>
     464:	00 00       	nop
     466:	ff 00       	.word	0x00ff	; ????
     468:	f7 14       	cp	r15, r7
     46a:	14 14       	cp	r1, r4
     46c:	14 14       	cp	r1, r4
     46e:	14 14       	cp	r1, r4
     470:	f7 00       	.word	0x00f7	; ????
     472:	f7 14       	cp	r15, r7
     474:	14 14       	cp	r1, r4
     476:	17 14       	cp	r1, r7
     478:	10 10       	cpse	r1, r0
     47a:	1f 10       	cpse	r1, r15
     47c:	1f 14       	cp	r1, r15
     47e:	14 14       	cp	r1, r4
     480:	f4 14       	cp	r15, r4
     482:	10 10       	cpse	r1, r0
     484:	f0 10       	cpse	r15, r0
     486:	f0 00       	.word	0x00f0	; ????
     488:	00 1f       	adc	r16, r16
     48a:	10 1f       	adc	r17, r16
     48c:	00 00       	nop
     48e:	00 1f       	adc	r16, r16
     490:	14 00       	.word	0x0014	; ????
     492:	00 00       	nop
     494:	fc 14       	cp	r15, r12
     496:	00 00       	nop
     498:	f0 10       	cpse	r15, r0
     49a:	f0 10       	cpse	r15, r0
     49c:	10 ff       	sbrs	r17, 0
     49e:	10 ff       	sbrs	r17, 0
     4a0:	14 14       	cp	r1, r4
     4a2:	14 ff       	sbrs	r17, 4
     4a4:	14 10       	cpse	r1, r4
     4a6:	10 10       	cpse	r1, r0
     4a8:	1f 00       	.word	0x001f	; ????
     4aa:	00 00       	nop
     4ac:	00 f0       	brcs	.+0      	; 0x4ae <__FUSE_REGION_LENGTH__+0xae>
     4ae:	10 ff       	sbrs	r17, 0
     4b0:	ff ff       	.word	0xffff	; ????
     4b2:	ff ff       	.word	0xffff	; ????
     4b4:	f0 f0       	brcs	.+60     	; 0x4f2 <__FUSE_REGION_LENGTH__+0xf2>
     4b6:	f0 f0       	brcs	.+60     	; 0x4f4 <__FUSE_REGION_LENGTH__+0xf4>
     4b8:	f0 ff       	sbrs	r31, 0
     4ba:	ff ff       	.word	0xffff	; ????
     4bc:	00 00       	nop
     4be:	00 00       	nop
     4c0:	00 ff       	sbrs	r16, 0
     4c2:	ff 0f       	add	r31, r31
     4c4:	0f 0f       	add	r16, r31
     4c6:	0f 0f       	add	r16, r31
     4c8:	38 44       	sbci	r19, 0x48	; 72
     4ca:	44 38       	cpi	r20, 0x84	; 132
     4cc:	44 fc       	sbrc	r4, 4
     4ce:	4a 4a       	sbci	r20, 0xAA	; 170
     4d0:	4a 34       	cpi	r20, 0x4A	; 74
     4d2:	7e 02       	muls	r23, r30
     4d4:	02 06       	cpc	r0, r18
     4d6:	06 02       	muls	r16, r22
     4d8:	7e 02       	muls	r23, r30
     4da:	7e 02       	muls	r23, r30
     4dc:	63 55       	subi	r22, 0x53	; 83
     4de:	49 41       	sbci	r20, 0x19	; 25
     4e0:	63 38       	cpi	r22, 0x83	; 131
     4e2:	44 44       	sbci	r20, 0x44	; 68
     4e4:	3c 04       	cpc	r3, r12
     4e6:	40 7e       	andi	r20, 0xE0	; 224
     4e8:	20 1e       	adc	r2, r16
     4ea:	20 06       	cpc	r2, r16
     4ec:	02 7e       	andi	r16, 0xE2	; 226
     4ee:	02 02       	muls	r16, r18
     4f0:	99 a5       	ldd	r25, Y+41	; 0x29
     4f2:	e7 a5       	ldd	r30, Z+47	; 0x2f
     4f4:	99 1c       	adc	r9, r9
     4f6:	2a 49       	sbci	r18, 0x9A	; 154
     4f8:	2a 1c       	adc	r2, r10
     4fa:	4c 72       	andi	r20, 0x2C	; 44
     4fc:	01 72       	andi	r16, 0x21	; 33
     4fe:	4c 30       	cpi	r20, 0x0C	; 12
     500:	4a 4d       	sbci	r20, 0xDA	; 218
     502:	4d 30       	cpi	r20, 0x0D	; 13
     504:	30 48       	sbci	r19, 0x80	; 128
     506:	78 48       	sbci	r23, 0x88	; 136
     508:	30 bc       	out	0x20, r3	; 32
     50a:	62 5a       	subi	r22, 0xA2	; 162
     50c:	46 3d       	cpi	r20, 0xD6	; 214
     50e:	3e 49       	sbci	r19, 0x9E	; 158
     510:	49 49       	sbci	r20, 0x99	; 153
     512:	00 7e       	andi	r16, 0xE0	; 224
     514:	01 01       	movw	r0, r2
     516:	01 7e       	andi	r16, 0xE1	; 225
     518:	2a 2a       	or	r2, r26
     51a:	2a 2a       	or	r2, r26
     51c:	2a 44       	sbci	r18, 0x4A	; 74
     51e:	44 5f       	subi	r20, 0xF4	; 244
     520:	44 44       	sbci	r20, 0x44	; 68
     522:	40 51       	subi	r20, 0x10	; 16
     524:	4a 44       	sbci	r20, 0x4A	; 74
     526:	40 40       	sbci	r20, 0x00	; 0
     528:	44 4a       	sbci	r20, 0xA4	; 164
     52a:	51 40       	sbci	r21, 0x01	; 1
     52c:	00 00       	nop
     52e:	ff 01       	movw	r30, r30
     530:	03 e0       	ldi	r16, 0x03	; 3
     532:	80 ff       	sbrs	r24, 0
     534:	00 00       	nop
     536:	08 08       	sbc	r0, r8
     538:	6b 6b       	ori	r22, 0xBB	; 187
     53a:	08 36       	cpi	r16, 0x68	; 104
     53c:	12 36       	cpi	r17, 0x62	; 98
     53e:	24 36       	cpi	r18, 0x64	; 100
     540:	06 0f       	add	r16, r22
     542:	09 0f       	add	r16, r25
     544:	06 00       	.word	0x0006	; ????
     546:	00 18       	sub	r0, r0
     548:	18 00       	.word	0x0018	; ????
     54a:	00 00       	nop
     54c:	10 10       	cpse	r1, r0
     54e:	00 30       	cpi	r16, 0x00	; 0
     550:	40 ff       	sbrs	r20, 0
     552:	01 01       	movw	r0, r2
     554:	00 1f       	adc	r16, r16
     556:	01 01       	movw	r0, r2
     558:	1e 00       	.word	0x001e	; ????
     55a:	19 1d       	adc	r17, r9
     55c:	17 12       	cpse	r1, r23
     55e:	00 3c       	cpi	r16, 0xC0	; 192
     560:	3c 3c       	cpi	r19, 0xCC	; 204
     562:	3c 00       	.word	0x003c	; ????
     564:	00 00       	nop
	...

00000568 <digital_pin_to_timer_PGM>:
     568:	00 00 00 08 00 02 01 00 00 03 04 07 00 00 00 00     ................
     578:	00 00 00 00                                         ....

0000057c <digital_pin_to_bit_mask_PGM>:
     57c:	01 02 04 08 10 20 40 80 01 02 04 08 10 20 01 02     ..... @...... ..
     58c:	04 08 10 20                                         ... 

00000590 <digital_pin_to_port_PGM>:
     590:	04 04 04 04 04 04 04 04 02 02 02 02 02 02 03 03     ................
     5a0:	03 03 03 03                                         ....

000005a4 <port_to_output_PGM>:
     5a4:	00 00 00 00 25 00 28 00 2b 00                       ....%.(.+.

000005ae <port_to_mode_PGM>:
     5ae:	00 00 00 00 24 00 27 00 2a 00                       ....$.'.*.

000005b8 <__ctors_start>:
     5b8:	2c 05       	cpc	r18, r12
     5ba:	f2 13       	cpse	r31, r18
     5bc:	01 17       	cp	r16, r17

000005be <__ctors_end>:
     5be:	5c 05       	cpc	r21, r12

000005c0 <__dtors_end>:
     5c0:	11 24       	eor	r1, r1
     5c2:	1f be       	out	0x3f, r1	; 63
     5c4:	cf ef       	ldi	r28, 0xFF	; 255
     5c6:	d8 e0       	ldi	r29, 0x08	; 8
     5c8:	de bf       	out	0x3e, r29	; 62
     5ca:	cd bf       	out	0x3d, r28	; 61

000005cc <__do_copy_data>:
     5cc:	15 e0       	ldi	r17, 0x05	; 5
     5ce:	a0 e0       	ldi	r26, 0x00	; 0
     5d0:	b1 e0       	ldi	r27, 0x01	; 1
     5d2:	e2 ec       	ldi	r30, 0xC2	; 194
     5d4:	fc e3       	ldi	r31, 0x3C	; 60
     5d6:	02 c0       	rjmp	.+4      	; 0x5dc <__do_copy_data+0x10>
     5d8:	05 90       	lpm	r0, Z+
     5da:	0d 92       	st	X+, r0
     5dc:	ac 3e       	cpi	r26, 0xEC	; 236
     5de:	b1 07       	cpc	r27, r17
     5e0:	d9 f7       	brne	.-10     	; 0x5d8 <__do_copy_data+0xc>

000005e2 <__do_clear_bss>:
     5e2:	27 e0       	ldi	r18, 0x07	; 7
     5e4:	ac ee       	ldi	r26, 0xEC	; 236
     5e6:	b5 e0       	ldi	r27, 0x05	; 5
     5e8:	01 c0       	rjmp	.+2      	; 0x5ec <.do_clear_bss_start>

000005ea <.do_clear_bss_loop>:
     5ea:	1d 92       	st	X+, r1

000005ec <.do_clear_bss_start>:
     5ec:	a1 3c       	cpi	r26, 0xC1	; 193
     5ee:	b2 07       	cpc	r27, r18
     5f0:	e1 f7       	brne	.-8      	; 0x5ea <.do_clear_bss_loop>

000005f2 <__do_global_ctors>:
     5f2:	12 e0       	ldi	r17, 0x02	; 2
     5f4:	cf ed       	ldi	r28, 0xDF	; 223
     5f6:	d2 e0       	ldi	r29, 0x02	; 2
     5f8:	04 c0       	rjmp	.+8      	; 0x602 <__do_global_ctors+0x10>
     5fa:	21 97       	sbiw	r28, 0x01	; 1
     5fc:	fe 01       	movw	r30, r28
     5fe:	0e 94 ec 1b 	call	0x37d8	; 0x37d8 <__tablejump2__>
     602:	cc 3d       	cpi	r28, 0xDC	; 220
     604:	d1 07       	cpc	r29, r17
     606:	c9 f7       	brne	.-14     	; 0x5fa <__do_global_ctors+0x8>
     608:	0e 94 2f 17 	call	0x2e5e	; 0x2e5e <main>
     60c:	0c 94 54 1e 	jmp	0x3ca8	; 0x3ca8 <__do_global_dtors>

00000610 <__bad_interrupt>:
     610:	0c 94 00 00 	jmp	0	; 0x0 <__vectors>

00000614 <_ZN4BuffC1Ev>:
}

String Buff::getBuff()
{
	return buff;
}
     614:	cf 93       	push	r28
     616:	df 93       	push	r29
     618:	ec 01       	movw	r28, r24
     61a:	fc 01       	movw	r30, r24
     61c:	11 92       	st	Z+, r1
     61e:	cf 01       	movw	r24, r30
     620:	6f ed       	ldi	r22, 0xDF	; 223
     622:	75 e0       	ldi	r23, 0x05	; 5
     624:	0e 94 0b 1a 	call	0x3416	; 0x3416 <_ZN6StringC1EPKc>
     628:	6f ed       	ldi	r22, 0xDF	; 223
     62a:	75 e0       	ldi	r23, 0x05	; 5
     62c:	ce 01       	movw	r24, r28
     62e:	07 96       	adiw	r24, 0x07	; 7
     630:	0e 94 0b 1a 	call	0x3416	; 0x3416 <_ZN6StringC1EPKc>
     634:	6f ed       	ldi	r22, 0xDF	; 223
     636:	75 e0       	ldi	r23, 0x05	; 5
     638:	ce 01       	movw	r24, r28
     63a:	0d 96       	adiw	r24, 0x0d	; 13
     63c:	0e 94 0b 1a 	call	0x3416	; 0x3416 <_ZN6StringC1EPKc>
     640:	6f ed       	ldi	r22, 0xDF	; 223
     642:	75 e0       	ldi	r23, 0x05	; 5
     644:	ce 01       	movw	r24, r28
     646:	43 96       	adiw	r24, 0x13	; 19
     648:	0e 94 0b 1a 	call	0x3416	; 0x3416 <_ZN6StringC1EPKc>
     64c:	6f ed       	ldi	r22, 0xDF	; 223
     64e:	75 e0       	ldi	r23, 0x05	; 5
     650:	ce 01       	movw	r24, r28
     652:	49 96       	adiw	r24, 0x19	; 25
     654:	0e 94 0b 1a 	call	0x3416	; 0x3416 <_ZN6StringC1EPKc>
     658:	6f ed       	ldi	r22, 0xDF	; 223
     65a:	75 e0       	ldi	r23, 0x05	; 5
     65c:	ce 01       	movw	r24, r28
     65e:	4f 96       	adiw	r24, 0x1f	; 31
     660:	0e 94 0b 1a 	call	0x3416	; 0x3416 <_ZN6StringC1EPKc>
     664:	81 e0       	ldi	r24, 0x01	; 1
     666:	8d a3       	std	Y+37, r24	; 0x25
     668:	df 91       	pop	r29
     66a:	cf 91       	pop	r28
     66c:	08 95       	ret

0000066e <_ZN4Buff9onRecivedEv>:
{
} //Buff


void Buff::onRecived()
{
     66e:	3f 92       	push	r3
     670:	4f 92       	push	r4
     672:	5f 92       	push	r5
     674:	6f 92       	push	r6
     676:	7f 92       	push	r7
     678:	8f 92       	push	r8
     67a:	9f 92       	push	r9
     67c:	af 92       	push	r10
     67e:	bf 92       	push	r11
     680:	cf 92       	push	r12
     682:	df 92       	push	r13
     684:	ef 92       	push	r14
     686:	ff 92       	push	r15
     688:	0f 93       	push	r16
     68a:	1f 93       	push	r17
     68c:	cf 93       	push	r28
     68e:	df 93       	push	r29
     690:	00 d0       	rcall	.+0      	; 0x692 <_ZN4Buff9onRecivedEv+0x24>
     692:	00 d0       	rcall	.+0      	; 0x694 <_ZN4Buff9onRecivedEv+0x26>
     694:	00 d0       	rcall	.+0      	; 0x696 <_ZN4Buff9onRecivedEv+0x28>
     696:	cd b7       	in	r28, 0x3d	; 61
     698:	de b7       	in	r29, 0x3e	; 62
     69a:	7c 01       	movw	r14, r24
     69c:	8c 01       	movw	r16, r24
     69e:	01 5e       	subi	r16, 0xE1	; 225
     6a0:	1f 4f       	sbci	r17, 0xFF	; 255
				Msg = _buff.substring(4);
				_buff = "";
			}
			if(_buff.startsWith("OK"))
			{
				buff += WKST;
     6a2:	6c 01       	movw	r12, r24
     6a4:	8f ef       	ldi	r24, 0xFF	; 255
     6a6:	c8 1a       	sub	r12, r24
     6a8:	d8 0a       	sbc	r13, r24
     6aa:	27 01       	movw	r4, r14
     6ac:	ed e0       	ldi	r30, 0x0D	; 13
     6ae:	4e 0e       	add	r4, r30
     6b0:	51 1c       	adc	r5, r1
				buff += XYP;
     6b2:	37 01       	movw	r6, r14
     6b4:	f3 e1       	ldi	r31, 0x13	; 19
     6b6:	6f 0e       	add	r6, r31
     6b8:	71 1c       	adc	r7, r1
				buff += Msg;
     6ba:	57 01       	movw	r10, r14
     6bc:	89 e1       	ldi	r24, 0x19	; 25
     6be:	a8 0e       	add	r10, r24
     6c0:	b1 1c       	adc	r11, r1
			{
				buff = "";
			}
			if (_buff.startsWith("STR:"))
			{
				STR = _buff.substring(4);
     6c2:	47 01       	movw	r8, r14
     6c4:	e7 e0       	ldi	r30, 0x07	; 7
     6c6:	8e 0e       	add	r8, r30
     6c8:	91 1c       	adc	r9, r1
} //Buff


void Buff::onRecived()
{
	while(Serial.available()>0)
     6ca:	87 e1       	ldi	r24, 0x17	; 23
     6cc:	97 e0       	ldi	r25, 0x07	; 7
     6ce:	0e 94 65 15 	call	0x2aca	; 0x2aca <_ZN14HardwareSerial9availableEv>
     6d2:	18 16       	cp	r1, r24
     6d4:	19 06       	cpc	r1, r25
     6d6:	0c f0       	brlt	.+2      	; 0x6da <_ZN4Buff9onRecivedEv+0x6c>
     6d8:	22 c1       	rjmp	.+580    	; 0x91e <__stack+0x1f>
	{
		char c = Serial.read();
     6da:	87 e1       	ldi	r24, 0x17	; 23
     6dc:	97 e0       	ldi	r25, 0x07	; 7
     6de:	0e 94 7f 15 	call	0x2afe	; 0x2afe <_ZN14HardwareSerial4readEv>
		if (c =='\n')
     6e2:	8a 30       	cpi	r24, 0x0A	; 10
     6e4:	09 f0       	breq	.+2      	; 0x6e8 <_ZN4Buff9onRecivedEv+0x7a>
     6e6:	16 c1       	rjmp	.+556    	; 0x914 <__stack+0x15>
		{
			_buff.toUpperCase();
     6e8:	c8 01       	movw	r24, r16
     6ea:	0e 94 82 1b 	call	0x3704	; 0x3704 <_ZN6String11toUpperCaseEv>
			Serial.println(_buff);
     6ee:	b8 01       	movw	r22, r16
     6f0:	87 e1       	ldi	r24, 0x17	; 23
     6f2:	97 e0       	ldi	r25, 0x07	; 7
     6f4:	0e 94 90 17 	call	0x2f20	; 0x2f20 <_ZN5Print7printlnERK6String>
			//上电自检数据
			if (_buff.startsWith("INITING"))
     6f8:	62 e2       	ldi	r22, 0x22	; 34
     6fa:	75 e0       	ldi	r23, 0x05	; 5
     6fc:	ce 01       	movw	r24, r28
     6fe:	01 96       	adiw	r24, 0x01	; 1
     700:	0e 94 0b 1a 	call	0x3416	; 0x3416 <_ZN6StringC1EPKc>
     704:	be 01       	movw	r22, r28
     706:	6f 5f       	subi	r22, 0xFF	; 255
     708:	7f 4f       	sbci	r23, 0xFF	; 255
     70a:	c8 01       	movw	r24, r16
     70c:	0e 94 2d 1b 	call	0x365a	; 0x365a <_ZNK6String10startsWithERKS_>
     710:	38 2e       	mov	r3, r24
     712:	ce 01       	movw	r24, r28
     714:	01 96       	adiw	r24, 0x01	; 1
     716:	0e 94 9d 19 	call	0x333a	; 0x333a <_ZN6StringD1Ev>
     71a:	33 20       	and	r3, r3
     71c:	29 f0       	breq	.+10     	; 0x728 <_ZN4Buff9onRecivedEv+0xba>
			{
				buff = "";
     71e:	6f ed       	ldi	r22, 0xDF	; 223
     720:	75 e0       	ldi	r23, 0x05	; 5
     722:	c6 01       	movw	r24, r12
     724:	0e 94 89 1a 	call	0x3512	; 0x3512 <_ZN6StringaSEPKc>
			}
			if (_buff.startsWith("STR:"))
     728:	6a e2       	ldi	r22, 0x2A	; 42
     72a:	75 e0       	ldi	r23, 0x05	; 5
     72c:	ce 01       	movw	r24, r28
     72e:	01 96       	adiw	r24, 0x01	; 1
     730:	0e 94 0b 1a 	call	0x3416	; 0x3416 <_ZN6StringC1EPKc>
     734:	be 01       	movw	r22, r28
     736:	6f 5f       	subi	r22, 0xFF	; 255
     738:	7f 4f       	sbci	r23, 0xFF	; 255
     73a:	c8 01       	movw	r24, r16
     73c:	0e 94 2d 1b 	call	0x365a	; 0x365a <_ZNK6String10startsWithERKS_>
     740:	38 2e       	mov	r3, r24
     742:	ce 01       	movw	r24, r28
     744:	01 96       	adiw	r24, 0x01	; 1
     746:	0e 94 9d 19 	call	0x333a	; 0x333a <_ZN6StringD1Ev>
     74a:	33 20       	and	r3, r3
     74c:	e9 f0       	breq	.+58     	; 0x788 <_ZN4Buff9onRecivedEv+0x11a>
	int indexOf( const String &str, unsigned int fromIndex ) const;
	int lastIndexOf( char ch ) const;
	int lastIndexOf( char ch, unsigned int fromIndex ) const;
	int lastIndexOf( const String &str ) const;
	int lastIndexOf( const String &str, unsigned int fromIndex ) const;
	String substring( unsigned int beginIndex ) const { return substring(beginIndex, len); };
     74e:	f7 01       	movw	r30, r14
     750:	23 a1       	ldd	r18, Z+35	; 0x23
     752:	34 a1       	ldd	r19, Z+36	; 0x24
     754:	44 e0       	ldi	r20, 0x04	; 4
     756:	50 e0       	ldi	r21, 0x00	; 0
     758:	b8 01       	movw	r22, r16
     75a:	ce 01       	movw	r24, r28
     75c:	01 96       	adiw	r24, 0x01	; 1
     75e:	0e 94 3c 1b 	call	0x3678	; 0x3678 <_ZNK6String9substringEjj>
			{
				STR = _buff.substring(4);
     762:	be 01       	movw	r22, r28
     764:	6f 5f       	subi	r22, 0xFF	; 255
     766:	7f 4f       	sbci	r23, 0xFF	; 255
     768:	c4 01       	movw	r24, r8
     76a:	0e 94 7d 1a 	call	0x34fa	; 0x34fa <_ZN6StringaSEOS_>
     76e:	ce 01       	movw	r24, r28
     770:	01 96       	adiw	r24, 0x01	; 1
     772:	0e 94 9d 19 	call	0x333a	; 0x333a <_ZN6StringD1Ev>
	unsigned char concat(double num);
	unsigned char concat(const __FlashStringHelper * str);

	// if there's not enough memory for the concatenated value, the string
	// will be left unchanged (but this isn't signalled in any way)
	String & operator += (const String &rhs)	{concat(rhs); return (*this);}
     776:	b4 01       	movw	r22, r8
     778:	c6 01       	movw	r24, r12
     77a:	0e 94 ce 1a 	call	0x359c	; 0x359c <_ZN6String6concatERKS_>
				buff += STR;
				_buff = "";
     77e:	6f ed       	ldi	r22, 0xDF	; 223
     780:	75 e0       	ldi	r23, 0x05	; 5
     782:	c8 01       	movw	r24, r16
     784:	0e 94 89 1a 	call	0x3512	; 0x3512 <_ZN6StringaSEPKc>
			}
			//工作状态数据
			if(_buff.startsWith("INFORMATION"))
     788:	6f e2       	ldi	r22, 0x2F	; 47
     78a:	75 e0       	ldi	r23, 0x05	; 5
     78c:	ce 01       	movw	r24, r28
     78e:	01 96       	adiw	r24, 0x01	; 1
     790:	0e 94 0b 1a 	call	0x3416	; 0x3416 <_ZN6StringC1EPKc>
     794:	be 01       	movw	r22, r28
     796:	6f 5f       	subi	r22, 0xFF	; 255
     798:	7f 4f       	sbci	r23, 0xFF	; 255
     79a:	c8 01       	movw	r24, r16
     79c:	0e 94 2d 1b 	call	0x365a	; 0x365a <_ZNK6String10startsWithERKS_>
     7a0:	38 2e       	mov	r3, r24
     7a2:	ce 01       	movw	r24, r28
     7a4:	01 96       	adiw	r24, 0x01	; 1
     7a6:	0e 94 9d 19 	call	0x333a	; 0x333a <_ZN6StringD1Ev>
     7aa:	33 20       	and	r3, r3
     7ac:	29 f0       	breq	.+10     	; 0x7b8 <_ZN4Buff9onRecivedEv+0x14a>
			{
				buff = "";
     7ae:	6f ed       	ldi	r22, 0xDF	; 223
     7b0:	75 e0       	ldi	r23, 0x05	; 5
     7b2:	c6 01       	movw	r24, r12
     7b4:	0e 94 89 1a 	call	0x3512	; 0x3512 <_ZN6StringaSEPKc>
			}
			if (_buff.startsWith("WKST:")>0)
     7b8:	6b e3       	ldi	r22, 0x3B	; 59
     7ba:	75 e0       	ldi	r23, 0x05	; 5
     7bc:	ce 01       	movw	r24, r28
     7be:	01 96       	adiw	r24, 0x01	; 1
     7c0:	0e 94 0b 1a 	call	0x3416	; 0x3416 <_ZN6StringC1EPKc>
     7c4:	be 01       	movw	r22, r28
     7c6:	6f 5f       	subi	r22, 0xFF	; 255
     7c8:	7f 4f       	sbci	r23, 0xFF	; 255
     7ca:	c8 01       	movw	r24, r16
     7cc:	0e 94 2d 1b 	call	0x365a	; 0x365a <_ZNK6String10startsWithERKS_>
     7d0:	38 2e       	mov	r3, r24
     7d2:	ce 01       	movw	r24, r28
     7d4:	01 96       	adiw	r24, 0x01	; 1
     7d6:	0e 94 9d 19 	call	0x333a	; 0x333a <_ZN6StringD1Ev>
     7da:	33 20       	and	r3, r3
     7dc:	c9 f0       	breq	.+50     	; 0x810 <_ZN4Buff9onRecivedEv+0x1a2>
	int indexOf( const String &str, unsigned int fromIndex ) const;
	int lastIndexOf( char ch ) const;
	int lastIndexOf( char ch, unsigned int fromIndex ) const;
	int lastIndexOf( const String &str ) const;
	int lastIndexOf( const String &str, unsigned int fromIndex ) const;
	String substring( unsigned int beginIndex ) const { return substring(beginIndex, len); };
     7de:	f7 01       	movw	r30, r14
     7e0:	23 a1       	ldd	r18, Z+35	; 0x23
     7e2:	34 a1       	ldd	r19, Z+36	; 0x24
     7e4:	45 e0       	ldi	r20, 0x05	; 5
     7e6:	50 e0       	ldi	r21, 0x00	; 0
     7e8:	b8 01       	movw	r22, r16
     7ea:	ce 01       	movw	r24, r28
     7ec:	01 96       	adiw	r24, 0x01	; 1
     7ee:	0e 94 3c 1b 	call	0x3678	; 0x3678 <_ZNK6String9substringEjj>
			{
				WKST = _buff.substring(5);
     7f2:	be 01       	movw	r22, r28
     7f4:	6f 5f       	subi	r22, 0xFF	; 255
     7f6:	7f 4f       	sbci	r23, 0xFF	; 255
     7f8:	c2 01       	movw	r24, r4
     7fa:	0e 94 7d 1a 	call	0x34fa	; 0x34fa <_ZN6StringaSEOS_>
     7fe:	ce 01       	movw	r24, r28
     800:	01 96       	adiw	r24, 0x01	; 1
     802:	0e 94 9d 19 	call	0x333a	; 0x333a <_ZN6StringD1Ev>
				_buff = "";
     806:	6f ed       	ldi	r22, 0xDF	; 223
     808:	75 e0       	ldi	r23, 0x05	; 5
     80a:	c8 01       	movw	r24, r16
     80c:	0e 94 89 1a 	call	0x3512	; 0x3512 <_ZN6StringaSEPKc>
			}
			//位置姿势数据
			if (_buff.startsWith("XYP:"))
     810:	61 e4       	ldi	r22, 0x41	; 65
     812:	75 e0       	ldi	r23, 0x05	; 5
     814:	ce 01       	movw	r24, r28
     816:	01 96       	adiw	r24, 0x01	; 1
     818:	0e 94 0b 1a 	call	0x3416	; 0x3416 <_ZN6StringC1EPKc>
     81c:	be 01       	movw	r22, r28
     81e:	6f 5f       	subi	r22, 0xFF	; 255
     820:	7f 4f       	sbci	r23, 0xFF	; 255
     822:	c8 01       	movw	r24, r16
     824:	0e 94 2d 1b 	call	0x365a	; 0x365a <_ZNK6String10startsWithERKS_>
     828:	38 2e       	mov	r3, r24
     82a:	ce 01       	movw	r24, r28
     82c:	01 96       	adiw	r24, 0x01	; 1
     82e:	0e 94 9d 19 	call	0x333a	; 0x333a <_ZN6StringD1Ev>
     832:	33 20       	and	r3, r3
     834:	c9 f0       	breq	.+50     	; 0x868 <_ZN4Buff9onRecivedEv+0x1fa>
     836:	f7 01       	movw	r30, r14
     838:	23 a1       	ldd	r18, Z+35	; 0x23
     83a:	34 a1       	ldd	r19, Z+36	; 0x24
     83c:	44 e0       	ldi	r20, 0x04	; 4
     83e:	50 e0       	ldi	r21, 0x00	; 0
     840:	b8 01       	movw	r22, r16
     842:	ce 01       	movw	r24, r28
     844:	01 96       	adiw	r24, 0x01	; 1
     846:	0e 94 3c 1b 	call	0x3678	; 0x3678 <_ZNK6String9substringEjj>
			{
				XYP = _buff.substring(4);
     84a:	be 01       	movw	r22, r28
     84c:	6f 5f       	subi	r22, 0xFF	; 255
     84e:	7f 4f       	sbci	r23, 0xFF	; 255
     850:	c3 01       	movw	r24, r6
     852:	0e 94 7d 1a 	call	0x34fa	; 0x34fa <_ZN6StringaSEOS_>
     856:	ce 01       	movw	r24, r28
     858:	01 96       	adiw	r24, 0x01	; 1
     85a:	0e 94 9d 19 	call	0x333a	; 0x333a <_ZN6StringD1Ev>
				_buff = "";
     85e:	6f ed       	ldi	r22, 0xDF	; 223
     860:	75 e0       	ldi	r23, 0x05	; 5
     862:	c8 01       	movw	r24, r16
     864:	0e 94 89 1a 	call	0x3512	; 0x3512 <_ZN6StringaSEPKc>
			}
			//状态数据
			if (_buff.startsWith("MSG:"))
     868:	66 e4       	ldi	r22, 0x46	; 70
     86a:	75 e0       	ldi	r23, 0x05	; 5
     86c:	ce 01       	movw	r24, r28
     86e:	01 96       	adiw	r24, 0x01	; 1
     870:	0e 94 0b 1a 	call	0x3416	; 0x3416 <_ZN6StringC1EPKc>
     874:	be 01       	movw	r22, r28
     876:	6f 5f       	subi	r22, 0xFF	; 255
     878:	7f 4f       	sbci	r23, 0xFF	; 255
     87a:	c8 01       	movw	r24, r16
     87c:	0e 94 2d 1b 	call	0x365a	; 0x365a <_ZNK6String10startsWithERKS_>
     880:	38 2e       	mov	r3, r24
     882:	ce 01       	movw	r24, r28
     884:	01 96       	adiw	r24, 0x01	; 1
     886:	0e 94 9d 19 	call	0x333a	; 0x333a <_ZN6StringD1Ev>
     88a:	33 20       	and	r3, r3
     88c:	c9 f0       	breq	.+50     	; 0x8c0 <_ZN4Buff9onRecivedEv+0x252>
     88e:	f7 01       	movw	r30, r14
     890:	23 a1       	ldd	r18, Z+35	; 0x23
     892:	34 a1       	ldd	r19, Z+36	; 0x24
     894:	44 e0       	ldi	r20, 0x04	; 4
     896:	50 e0       	ldi	r21, 0x00	; 0
     898:	b8 01       	movw	r22, r16
     89a:	ce 01       	movw	r24, r28
     89c:	01 96       	adiw	r24, 0x01	; 1
     89e:	0e 94 3c 1b 	call	0x3678	; 0x3678 <_ZNK6String9substringEjj>
			{
				Msg = _buff.substring(4);
     8a2:	be 01       	movw	r22, r28
     8a4:	6f 5f       	subi	r22, 0xFF	; 255
     8a6:	7f 4f       	sbci	r23, 0xFF	; 255
     8a8:	c5 01       	movw	r24, r10
     8aa:	0e 94 7d 1a 	call	0x34fa	; 0x34fa <_ZN6StringaSEOS_>
     8ae:	ce 01       	movw	r24, r28
     8b0:	01 96       	adiw	r24, 0x01	; 1
     8b2:	0e 94 9d 19 	call	0x333a	; 0x333a <_ZN6StringD1Ev>
				_buff = "";
     8b6:	6f ed       	ldi	r22, 0xDF	; 223
     8b8:	75 e0       	ldi	r23, 0x05	; 5
     8ba:	c8 01       	movw	r24, r16
     8bc:	0e 94 89 1a 	call	0x3512	; 0x3512 <_ZN6StringaSEPKc>
			}
			if(_buff.startsWith("OK"))
     8c0:	6b e4       	ldi	r22, 0x4B	; 75
     8c2:	75 e0       	ldi	r23, 0x05	; 5
     8c4:	ce 01       	movw	r24, r28
     8c6:	01 96       	adiw	r24, 0x01	; 1
     8c8:	0e 94 0b 1a 	call	0x3416	; 0x3416 <_ZN6StringC1EPKc>
     8cc:	be 01       	movw	r22, r28
     8ce:	6f 5f       	subi	r22, 0xFF	; 255
     8d0:	7f 4f       	sbci	r23, 0xFF	; 255
     8d2:	c8 01       	movw	r24, r16
     8d4:	0e 94 2d 1b 	call	0x365a	; 0x365a <_ZNK6String10startsWithERKS_>
     8d8:	38 2e       	mov	r3, r24
     8da:	ce 01       	movw	r24, r28
     8dc:	01 96       	adiw	r24, 0x01	; 1
     8de:	0e 94 9d 19 	call	0x333a	; 0x333a <_ZN6StringD1Ev>
     8e2:	33 20       	and	r3, r3
     8e4:	89 f0       	breq	.+34     	; 0x908 <__stack+0x9>
	unsigned char concat(double num);
	unsigned char concat(const __FlashStringHelper * str);

	// if there's not enough memory for the concatenated value, the string
	// will be left unchanged (but this isn't signalled in any way)
	String & operator += (const String &rhs)	{concat(rhs); return (*this);}
     8e6:	b2 01       	movw	r22, r4
     8e8:	c6 01       	movw	r24, r12
     8ea:	0e 94 ce 1a 	call	0x359c	; 0x359c <_ZN6String6concatERKS_>
     8ee:	b3 01       	movw	r22, r6
     8f0:	c6 01       	movw	r24, r12
     8f2:	0e 94 ce 1a 	call	0x359c	; 0x359c <_ZN6String6concatERKS_>
     8f6:	b5 01       	movw	r22, r10
     8f8:	c6 01       	movw	r24, r12
     8fa:	0e 94 ce 1a 	call	0x359c	; 0x359c <_ZN6String6concatERKS_>
			{
				buff += WKST;
				buff += XYP;
				buff += Msg;
				_buff = "";
     8fe:	6f ed       	ldi	r22, 0xDF	; 223
     900:	75 e0       	ldi	r23, 0x05	; 5
     902:	c8 01       	movw	r24, r16
     904:	0e 94 89 1a 	call	0x3512	; 0x3512 <_ZN6StringaSEPKc>
			}
			_buff = "";
     908:	6f ed       	ldi	r22, 0xDF	; 223
     90a:	75 e0       	ldi	r23, 0x05	; 5
     90c:	c8 01       	movw	r24, r16
     90e:	0e 94 89 1a 	call	0x3512	; 0x3512 <_ZN6StringaSEPKc>
     912:	db ce       	rjmp	.-586    	; 0x6ca <_ZN4Buff9onRecivedEv+0x5c>
	String & operator += (const char *cstr)		{concat(cstr); return (*this);}
	String & operator += (char c)			{concat(c); return (*this);}
     914:	68 2f       	mov	r22, r24
     916:	c8 01       	movw	r24, r16
     918:	0e 94 d5 1a 	call	0x35aa	; 0x35aa <_ZN6String6concatEc>
     91c:	d6 ce       	rjmp	.-596    	; 0x6ca <_ZN4Buff9onRecivedEv+0x5c>
			_buff+=c;
		}	
	}


}
     91e:	26 96       	adiw	r28, 0x06	; 6
     920:	0f b6       	in	r0, 0x3f	; 63
     922:	f8 94       	cli
     924:	de bf       	out	0x3e, r29	; 62
     926:	0f be       	out	0x3f, r0	; 63
     928:	cd bf       	out	0x3d, r28	; 61
     92a:	df 91       	pop	r29
     92c:	cf 91       	pop	r28
     92e:	1f 91       	pop	r17
     930:	0f 91       	pop	r16
     932:	ff 90       	pop	r15
     934:	ef 90       	pop	r14
     936:	df 90       	pop	r13
     938:	cf 90       	pop	r12
     93a:	bf 90       	pop	r11
     93c:	af 90       	pop	r10
     93e:	9f 90       	pop	r9
     940:	8f 90       	pop	r8
     942:	7f 90       	pop	r7
     944:	6f 90       	pop	r6
     946:	5f 90       	pop	r5
     948:	4f 90       	pop	r4
     94a:	3f 90       	pop	r3
     94c:	08 95       	ret

0000094e <_Z2UIv>:
	}	
}

void UI()
{
	Serial.println(millis());
     94e:	0e 94 5f 18 	call	0x30be	; 0x30be <millis>
     952:	ab 01       	movw	r20, r22
     954:	bc 01       	movw	r22, r24
     956:	2a e0       	ldi	r18, 0x0A	; 10
     958:	30 e0       	ldi	r19, 0x00	; 0
     95a:	87 e1       	ldi	r24, 0x17	; 23
     95c:	97 e0       	ldi	r25, 0x07	; 7
     95e:	0e 94 03 18 	call	0x3006	; 0x3006 <_ZN5Print7printlnEmi>
 	display.setCursor(0,5);
     962:	45 e0       	ldi	r20, 0x05	; 5
     964:	50 e0       	ldi	r21, 0x00	; 0
     966:	60 e0       	ldi	r22, 0x00	; 0
     968:	70 e0       	ldi	r23, 0x00	; 0
     96a:	85 e2       	ldi	r24, 0x25	; 37
     96c:	96 e0       	ldi	r25, 0x06	; 6
     96e:	0e 94 4b 0b 	call	0x1696	; 0x1696 <_ZN12Adafruit_GFX9setCursorEii>
 	display.clearDisplay();
     972:	85 e2       	ldi	r24, 0x25	; 37
     974:	96 e0       	ldi	r25, 0x06	; 6
     976:	0e 94 ec 0e 	call	0x1dd8	; 0x1dd8 <_ZN16Adafruit_SSD130612clearDisplayEv>
 	display.println(buff.buff);
     97a:	60 e0       	ldi	r22, 0x00	; 0
     97c:	76 e0       	ldi	r23, 0x06	; 6
     97e:	85 e2       	ldi	r24, 0x25	; 37
     980:	96 e0       	ldi	r25, 0x06	; 6
     982:	0e 94 90 17 	call	0x2f20	; 0x2f20 <_ZN5Print7printlnERK6String>
 	buffok = true;
     986:	81 e0       	ldi	r24, 0x01	; 1
     988:	80 93 ec 05 	sts	0x05EC, r24	; 0x8005ec <__data_end>
     98c:	08 95       	ret

0000098e <setup>:
//End of Auto generated function prototypes by Atmel Studio
void UI();
Timer1 tc("CTC",500);
bool buffok = false;

void setup() {
     98e:	cf 93       	push	r28
     990:	df 93       	push	r29
     992:	00 d0       	rcall	.+0      	; 0x994 <setup+0x6>
     994:	00 d0       	rcall	.+0      	; 0x996 <setup+0x8>
     996:	00 d0       	rcall	.+0      	; 0x998 <setup+0xa>
     998:	cd b7       	in	r28, 0x3d	; 61
     99a:	de b7       	in	r29, 0x3e	; 62
  public:
    inline HardwareSerial(
      volatile uint8_t *ubrrh, volatile uint8_t *ubrrl,
      volatile uint8_t *ucsra, volatile uint8_t *ucsrb,
      volatile uint8_t *ucsrc, volatile uint8_t *udr);
    void begin(unsigned long baud) { begin(baud, SERIAL_8N1); }
     99c:	26 e0       	ldi	r18, 0x06	; 6
     99e:	40 e8       	ldi	r20, 0x80	; 128
     9a0:	55 e2       	ldi	r21, 0x25	; 37
     9a2:	60 e0       	ldi	r22, 0x00	; 0
     9a4:	70 e0       	ldi	r23, 0x00	; 0
     9a6:	87 e1       	ldi	r24, 0x17	; 23
     9a8:	97 e0       	ldi	r25, 0x07	; 7
     9aa:	0e 94 3a 16 	call	0x2c74	; 0x2c74 <_ZN14HardwareSerial5beginEmh>
  // put your setup code here, to run once:
  Serial.begin(9600);
  tc.setMode("CTC",500);
     9ae:	6e e4       	ldi	r22, 0x4E	; 78
     9b0:	75 e0       	ldi	r23, 0x05	; 5
     9b2:	ce 01       	movw	r24, r28
     9b4:	01 96       	adiw	r24, 0x01	; 1
     9b6:	0e 94 0b 1a 	call	0x3416	; 0x3416 <_ZN6StringC1EPKc>
     9ba:	44 ef       	ldi	r20, 0xF4	; 244
     9bc:	51 e0       	ldi	r21, 0x01	; 1
     9be:	be 01       	movw	r22, r28
     9c0:	6f 5f       	subi	r22, 0xFF	; 255
     9c2:	7f 4f       	sbci	r23, 0xFF	; 255
     9c4:	8d ee       	ldi	r24, 0xED	; 237
     9c6:	95 e0       	ldi	r25, 0x05	; 5
     9c8:	0e 94 70 14 	call	0x28e0	; 0x28e0 <_ZN6Timer17setModeE6Stringi>
     9cc:	ce 01       	movw	r24, r28
     9ce:	01 96       	adiw	r24, 0x01	; 1
     9d0:	0e 94 9d 19 	call	0x333a	; 0x333a <_ZN6StringD1Ev>
  display.begin(SSD1306_SWITCHCAPVCC,0X3C);
     9d4:	21 e0       	ldi	r18, 0x01	; 1
     9d6:	4c e3       	ldi	r20, 0x3C	; 60
     9d8:	62 e0       	ldi	r22, 0x02	; 2
     9da:	85 e2       	ldi	r24, 0x25	; 37
     9dc:	96 e0       	ldi	r25, 0x06	; 6
     9de:	0e 94 66 0f 	call	0x1ecc	; 0x1ecc <_ZN16Adafruit_SSD13065beginEhhb>
  display.display();
     9e2:	85 e2       	ldi	r24, 0x25	; 37
     9e4:	96 e0       	ldi	r25, 0x06	; 6
     9e6:	0e 94 9b 10 	call	0x2136	; 0x2136 <_ZN16Adafruit_SSD13067displayEv>
  
  delay(1000);
     9ea:	68 ee       	ldi	r22, 0xE8	; 232
     9ec:	73 e0       	ldi	r23, 0x03	; 3
     9ee:	80 e0       	ldi	r24, 0x00	; 0
     9f0:	90 e0       	ldi	r25, 0x00	; 0
     9f2:	0e 94 90 18 	call	0x3120	; 0x3120 <delay>
  display.setCursor(0,0);
     9f6:	40 e0       	ldi	r20, 0x00	; 0
     9f8:	50 e0       	ldi	r21, 0x00	; 0
     9fa:	60 e0       	ldi	r22, 0x00	; 0
     9fc:	70 e0       	ldi	r23, 0x00	; 0
     9fe:	85 e2       	ldi	r24, 0x25	; 37
     a00:	96 e0       	ldi	r25, 0x06	; 6
     a02:	0e 94 4b 0b 	call	0x1696	; 0x1696 <_ZN12Adafruit_GFX9setCursorEii>
  display.setTextSize(1);
     a06:	61 e0       	ldi	r22, 0x01	; 1
     a08:	85 e2       	ldi	r24, 0x25	; 37
     a0a:	96 e0       	ldi	r25, 0x06	; 6
     a0c:	0e 94 51 0b 	call	0x16a2	; 0x16a2 <_ZN12Adafruit_GFX11setTextSizeEh>
  display.setTextColor(WHITE);
     a10:	61 e0       	ldi	r22, 0x01	; 1
     a12:	70 e0       	ldi	r23, 0x00	; 0
     a14:	85 e2       	ldi	r24, 0x25	; 37
     a16:	96 e0       	ldi	r25, 0x06	; 6
     a18:	0e 94 57 0b 	call	0x16ae	; 0x16ae <_ZN12Adafruit_GFX12setTextColorEj>
  tc.attachInterrupt(UI);
     a1c:	67 ea       	ldi	r22, 0xA7	; 167
     a1e:	74 e0       	ldi	r23, 0x04	; 4
     a20:	8d ee       	ldi	r24, 0xED	; 237
     a22:	95 e0       	ldi	r25, 0x05	; 5
     a24:	0e 94 25 15 	call	0x2a4a	; 0x2a4a <_ZN6Timer115attachInterruptEPFvvE>
}
     a28:	26 96       	adiw	r28, 0x06	; 6
     a2a:	0f b6       	in	r0, 0x3f	; 63
     a2c:	f8 94       	cli
     a2e:	de bf       	out	0x3e, r29	; 62
     a30:	0f be       	out	0x3f, r0	; 63
     a32:	cd bf       	out	0x3d, r28	; 61
     a34:	df 91       	pop	r29
     a36:	cf 91       	pop	r28
     a38:	08 95       	ret

00000a3a <loop>:

	//Serial.println("dddd");
			
	//Serial.println(buff.buff);
	//Serial.println();
	buff.onRecived();
     a3a:	8f ef       	ldi	r24, 0xFF	; 255
     a3c:	95 e0       	ldi	r25, 0x05	; 5
     a3e:	0e 94 37 03 	call	0x66e	; 0x66e <_ZN4Buff9onRecivedEv>
	
	//Serial.println("--------------------------------");
	//delay(20);
	if (buffok == true)
     a42:	80 91 ec 05 	lds	r24, 0x05EC	; 0x8005ec <__data_end>
     a46:	88 23       	and	r24, r24
     a48:	31 f0       	breq	.+12     	; 0xa56 <loop+0x1c>
	{
		display.display();
     a4a:	85 e2       	ldi	r24, 0x25	; 37
     a4c:	96 e0       	ldi	r25, 0x06	; 6
     a4e:	0e 94 9b 10 	call	0x2136	; 0x2136 <_ZN16Adafruit_SSD13067displayEv>
		buffok = false;
     a52:	10 92 ec 05 	sts	0x05EC, r1	; 0x8005ec <__data_end>
     a56:	08 95       	ret

00000a58 <_GLOBAL__sub_I_display>:
	Serial.println(millis());
 	display.setCursor(0,5);
 	display.clearDisplay();
 	display.println(buff.buff);
 	buffok = true;
     a58:	cf 93       	push	r28
     a5a:	df 93       	push	r29
     a5c:	00 d0       	rcall	.+0      	; 0xa5e <_GLOBAL__sub_I_display+0x6>
     a5e:	00 d0       	rcall	.+0      	; 0xa60 <_GLOBAL__sub_I_display+0x8>
     a60:	00 d0       	rcall	.+0      	; 0xa62 <_GLOBAL__sub_I_display+0xa>
     a62:	cd b7       	in	r28, 0x3d	; 61
     a64:	de b7       	in	r29, 0x3e	; 62
#include "Buff.h"
#include "XK.h"
#include "Timer1.h"
/*End of auto generated code by Atmel studio */

Adafruit_SSD1306 display(-1);
     a66:	6f ef       	ldi	r22, 0xFF	; 255
     a68:	85 e2       	ldi	r24, 0x25	; 37
     a6a:	96 e0       	ldi	r25, 0x06	; 6
     a6c:	0e 94 d3 0e 	call	0x1da6	; 0x1da6 <_ZN16Adafruit_SSD1306C1Ea>
Buff buff;
     a70:	8f ef       	ldi	r24, 0xFF	; 255
     a72:	95 e0       	ldi	r25, 0x05	; 5
     a74:	0e 94 0a 03 	call	0x614	; 0x614 <_ZN4BuffC1Ev>
XK x;
     a78:	89 ef       	ldi	r24, 0xF9	; 249
     a7a:	95 e0       	ldi	r25, 0x05	; 5
     a7c:	0e 94 53 15 	call	0x2aa6	; 0x2aa6 <_ZN2XKC1Ev>

//Beginning of Auto generated function prototypes by Atmel Studio
//End of Auto generated function prototypes by Atmel Studio
void UI();
Timer1 tc("CTC",500);
     a80:	6e e4       	ldi	r22, 0x4E	; 78
     a82:	75 e0       	ldi	r23, 0x05	; 5
     a84:	ce 01       	movw	r24, r28
     a86:	01 96       	adiw	r24, 0x01	; 1
     a88:	0e 94 0b 1a 	call	0x3416	; 0x3416 <_ZN6StringC1EPKc>
     a8c:	44 ef       	ldi	r20, 0xF4	; 244
     a8e:	51 e0       	ldi	r21, 0x01	; 1
     a90:	be 01       	movw	r22, r28
     a92:	6f 5f       	subi	r22, 0xFF	; 255
     a94:	7f 4f       	sbci	r23, 0xFF	; 255
     a96:	8d ee       	ldi	r24, 0xED	; 237
     a98:	95 e0       	ldi	r25, 0x05	; 5
     a9a:	0e 94 e0 14 	call	0x29c0	; 0x29c0 <_ZN6Timer1C1E6Stringi>
     a9e:	ce 01       	movw	r24, r28
     aa0:	01 96       	adiw	r24, 0x01	; 1
     aa2:	0e 94 9d 19 	call	0x333a	; 0x333a <_ZN6StringD1Ev>
	Serial.println(millis());
 	display.setCursor(0,5);
 	display.clearDisplay();
 	display.println(buff.buff);
 	buffok = true;
     aa6:	26 96       	adiw	r28, 0x06	; 6
     aa8:	0f b6       	in	r0, 0x3f	; 63
     aaa:	f8 94       	cli
     aac:	de bf       	out	0x3e, r29	; 62
     aae:	0f be       	out	0x3f, r0	; 63
     ab0:	cd bf       	out	0x3d, r28	; 61
     ab2:	df 91       	pop	r29
     ab4:	cf 91       	pop	r28
     ab6:	08 95       	ret

00000ab8 <_GLOBAL__sub_D_display>:
XK x;

//Beginning of Auto generated function prototypes by Atmel Studio
//End of Auto generated function prototypes by Atmel Studio
void UI();
Timer1 tc("CTC",500);
     ab8:	8d ee       	ldi	r24, 0xED	; 237
     aba:	95 e0       	ldi	r25, 0x05	; 5
     abc:	0e 94 2a 15 	call	0x2a54	; 0x2a54 <_ZN6Timer1D1Ev>
#include "Timer1.h"
/*End of auto generated code by Atmel studio */

Adafruit_SSD1306 display(-1);
Buff buff;
XK x;
     ac0:	89 ef       	ldi	r24, 0xF9	; 249
     ac2:	95 e0       	ldi	r25, 0x05	; 5
     ac4:	0e 94 61 15 	call	0x2ac2	; 0x2ac2 <_ZN2XKD1Ev>
#ifndef __BUFF_H__
#define __BUFF_H__

#include "WString.h"

class Buff
     ac8:	8e e1       	ldi	r24, 0x1E	; 30
     aca:	96 e0       	ldi	r25, 0x06	; 6
     acc:	0e 94 9d 19 	call	0x333a	; 0x333a <_ZN6StringD1Ev>
     ad0:	88 e1       	ldi	r24, 0x18	; 24
     ad2:	96 e0       	ldi	r25, 0x06	; 6
     ad4:	0e 94 9d 19 	call	0x333a	; 0x333a <_ZN6StringD1Ev>
     ad8:	82 e1       	ldi	r24, 0x12	; 18
     ada:	96 e0       	ldi	r25, 0x06	; 6
     adc:	0e 94 9d 19 	call	0x333a	; 0x333a <_ZN6StringD1Ev>
     ae0:	8c e0       	ldi	r24, 0x0C	; 12
     ae2:	96 e0       	ldi	r25, 0x06	; 6
     ae4:	0e 94 9d 19 	call	0x333a	; 0x333a <_ZN6StringD1Ev>
     ae8:	86 e0       	ldi	r24, 0x06	; 6
     aea:	96 e0       	ldi	r25, 0x06	; 6
     aec:	0e 94 9d 19 	call	0x333a	; 0x333a <_ZN6StringD1Ev>
     af0:	80 e0       	ldi	r24, 0x00	; 0
     af2:	96 e0       	ldi	r25, 0x06	; 6
     af4:	0c 94 9d 19 	jmp	0x333a	; 0x333a <_ZN6StringD1Ev>

00000af8 <_ZN5Print17availableForWriteEv>:
      return write((const uint8_t *)buffer, size);
    }

    // default to zero, meaning "a single write may block"
    // should be overriden by subclasses with buffering
    virtual int availableForWrite() { return 0; }
     af8:	80 e0       	ldi	r24, 0x00	; 0
     afa:	90 e0       	ldi	r25, 0x00	; 0
     afc:	08 95       	ret

00000afe <_ZN5Print5flushEv>:
    size_t println(unsigned long, int = DEC);
    size_t println(double, int = 2);
    size_t println(const Printable&);
    size_t println(void);

    virtual void flush() { /* Empty implementation for backward compatibility */ }
     afe:	08 95       	ret

00000b00 <_ZN12Adafruit_GFX9writeLineEiiiij>:
    }
    if(maxy >= miny) {
        *y1 = miny;
        *h  = maxy - miny + 1;
    }
}
     b00:	2f 92       	push	r2
     b02:	3f 92       	push	r3
     b04:	4f 92       	push	r4
     b06:	5f 92       	push	r5
     b08:	6f 92       	push	r6
     b0a:	7f 92       	push	r7
     b0c:	8f 92       	push	r8
     b0e:	9f 92       	push	r9
     b10:	af 92       	push	r10
     b12:	bf 92       	push	r11
     b14:	cf 92       	push	r12
     b16:	df 92       	push	r13
     b18:	ef 92       	push	r14
     b1a:	ff 92       	push	r15
     b1c:	0f 93       	push	r16
     b1e:	1f 93       	push	r17
     b20:	cf 93       	push	r28
     b22:	df 93       	push	r29
     b24:	00 d0       	rcall	.+0      	; 0xb26 <_ZN12Adafruit_GFX9writeLineEiiiij+0x26>
     b26:	1f 92       	push	r1
     b28:	cd b7       	in	r28, 0x3d	; 61
     b2a:	de b7       	in	r29, 0x3e	; 62
     b2c:	4c 01       	movw	r8, r24
     b2e:	7b 83       	std	Y+3, r23	; 0x03
     b30:	6a 83       	std	Y+2, r22	; 0x02
     b32:	6a 01       	movw	r12, r20
     b34:	59 01       	movw	r10, r18
     b36:	17 01       	movw	r2, r14
     b38:	98 01       	movw	r18, r16
     b3a:	24 1b       	sub	r18, r20
     b3c:	35 0b       	sbc	r19, r21
     b3e:	37 ff       	sbrs	r19, 7
     b40:	03 c0       	rjmp	.+6      	; 0xb48 <_ZN12Adafruit_GFX9writeLineEiiiij+0x48>
     b42:	31 95       	neg	r19
     b44:	21 95       	neg	r18
     b46:	31 09       	sbc	r19, r1
     b48:	c5 01       	movw	r24, r10
     b4a:	4a 81       	ldd	r20, Y+2	; 0x02
     b4c:	5b 81       	ldd	r21, Y+3	; 0x03
     b4e:	84 1b       	sub	r24, r20
     b50:	95 0b       	sbc	r25, r21
     b52:	97 ff       	sbrs	r25, 7
     b54:	03 c0       	rjmp	.+6      	; 0xb5c <_ZN12Adafruit_GFX9writeLineEiiiij+0x5c>
     b56:	91 95       	neg	r25
     b58:	81 95       	neg	r24
     b5a:	91 09       	sbc	r25, r1
     b5c:	51 e0       	ldi	r21, 0x01	; 1
     b5e:	59 83       	std	Y+1, r21	; 0x01
     b60:	82 17       	cp	r24, r18
     b62:	93 07       	cpc	r25, r19
     b64:	14 f0       	brlt	.+4      	; 0xb6a <_ZN12Adafruit_GFX9writeLineEiiiij+0x6a>
     b66:	19 82       	std	Y+1, r1	; 0x01
     b68:	0b c0       	rjmp	.+22     	; 0xb80 <_ZN12Adafruit_GFX9writeLineEiiiij+0x80>
     b6a:	9a 2d       	mov	r25, r10
     b6c:	8b 2d       	mov	r24, r11
     b6e:	58 01       	movw	r10, r16
     b70:	09 2f       	mov	r16, r25
     b72:	18 2f       	mov	r17, r24
     b74:	9a 81       	ldd	r25, Y+2	; 0x02
     b76:	8b 81       	ldd	r24, Y+3	; 0x03
     b78:	db 82       	std	Y+3, r13	; 0x03
     b7a:	ca 82       	std	Y+2, r12	; 0x02
     b7c:	c9 2e       	mov	r12, r25
     b7e:	d8 2e       	mov	r13, r24
     b80:	8a 81       	ldd	r24, Y+2	; 0x02
     b82:	9b 81       	ldd	r25, Y+3	; 0x03
     b84:	a8 16       	cp	r10, r24
     b86:	b9 06       	cpc	r11, r25
     b88:	5c f4       	brge	.+22     	; 0xba0 <_ZN12Adafruit_GFX9writeLineEiiiij+0xa0>
     b8a:	9c 2d       	mov	r25, r12
     b8c:	8d 2d       	mov	r24, r13
     b8e:	68 01       	movw	r12, r16
     b90:	09 2f       	mov	r16, r25
     b92:	18 2f       	mov	r17, r24
     b94:	9a 81       	ldd	r25, Y+2	; 0x02
     b96:	8b 81       	ldd	r24, Y+3	; 0x03
     b98:	bb 82       	std	Y+3, r11	; 0x03
     b9a:	aa 82       	std	Y+2, r10	; 0x02
     b9c:	a9 2e       	mov	r10, r25
     b9e:	b8 2e       	mov	r11, r24
     ba0:	25 01       	movw	r4, r10
     ba2:	aa 81       	ldd	r26, Y+2	; 0x02
     ba4:	bb 81       	ldd	r27, Y+3	; 0x03
     ba6:	4a 1a       	sub	r4, r26
     ba8:	5b 0a       	sbc	r5, r27
     baa:	38 01       	movw	r6, r16
     bac:	6c 18       	sub	r6, r12
     bae:	7d 08       	sbc	r7, r13
     bb0:	77 fe       	sbrs	r7, 7
     bb2:	03 c0       	rjmp	.+6      	; 0xbba <_ZN12Adafruit_GFX9writeLineEiiiij+0xba>
     bb4:	71 94       	neg	r7
     bb6:	61 94       	neg	r6
     bb8:	71 08       	sbc	r7, r1
     bba:	72 01       	movw	r14, r4
     bbc:	57 fe       	sbrs	r5, 7
     bbe:	03 c0       	rjmp	.+6      	; 0xbc6 <_ZN12Adafruit_GFX9writeLineEiiiij+0xc6>
     bc0:	bf ef       	ldi	r27, 0xFF	; 255
     bc2:	eb 1a       	sub	r14, r27
     bc4:	fb 0a       	sbc	r15, r27
     bc6:	f5 94       	asr	r15
     bc8:	e7 94       	ror	r14
     bca:	c0 16       	cp	r12, r16
     bcc:	d1 06       	cpc	r13, r17
     bce:	1c f0       	brlt	.+6      	; 0xbd6 <_ZN12Adafruit_GFX9writeLineEiiiij+0xd6>
     bd0:	0f ef       	ldi	r16, 0xFF	; 255
     bd2:	1f ef       	ldi	r17, 0xFF	; 255
     bd4:	1f c0       	rjmp	.+62     	; 0xc14 <_ZN12Adafruit_GFX9writeLineEiiiij+0x114>
     bd6:	01 e0       	ldi	r16, 0x01	; 1
     bd8:	10 e0       	ldi	r17, 0x00	; 0
     bda:	1c c0       	rjmp	.+56     	; 0xc14 <_ZN12Adafruit_GFX9writeLineEiiiij+0x114>
     bdc:	d4 01       	movw	r26, r8
     bde:	ed 91       	ld	r30, X+
     be0:	fc 91       	ld	r31, X
     be2:	b9 81       	ldd	r27, Y+1	; 0x01
     be4:	04 84       	ldd	r0, Z+12	; 0x0c
     be6:	f5 85       	ldd	r31, Z+13	; 0x0d
     be8:	e0 2d       	mov	r30, r0
     bea:	91 01       	movw	r18, r2
     bec:	bb 23       	and	r27, r27
     bee:	c1 f0       	breq	.+48     	; 0xc20 <_ZN12Adafruit_GFX9writeLineEiiiij+0x120>
     bf0:	4a 81       	ldd	r20, Y+2	; 0x02
     bf2:	5b 81       	ldd	r21, Y+3	; 0x03
     bf4:	b6 01       	movw	r22, r12
     bf6:	c4 01       	movw	r24, r8
     bf8:	09 95       	icall
     bfa:	e6 18       	sub	r14, r6
     bfc:	f7 08       	sbc	r15, r7
     bfe:	f7 fe       	sbrs	r15, 7
     c00:	04 c0       	rjmp	.+8      	; 0xc0a <_ZN12Adafruit_GFX9writeLineEiiiij+0x10a>
     c02:	c0 0e       	add	r12, r16
     c04:	d1 1e       	adc	r13, r17
     c06:	e4 0c       	add	r14, r4
     c08:	f5 1c       	adc	r15, r5
     c0a:	ea 81       	ldd	r30, Y+2	; 0x02
     c0c:	fb 81       	ldd	r31, Y+3	; 0x03
     c0e:	31 96       	adiw	r30, 0x01	; 1
     c10:	fb 83       	std	Y+3, r31	; 0x03
     c12:	ea 83       	std	Y+2, r30	; 0x02
     c14:	4a 81       	ldd	r20, Y+2	; 0x02
     c16:	5b 81       	ldd	r21, Y+3	; 0x03
     c18:	a4 16       	cp	r10, r20
     c1a:	b5 06       	cpc	r11, r21
     c1c:	fc f6       	brge	.-66     	; 0xbdc <_ZN12Adafruit_GFX9writeLineEiiiij+0xdc>
     c1e:	04 c0       	rjmp	.+8      	; 0xc28 <_ZN12Adafruit_GFX9writeLineEiiiij+0x128>
     c20:	a6 01       	movw	r20, r12
     c22:	6a 81       	ldd	r22, Y+2	; 0x02
     c24:	7b 81       	ldd	r23, Y+3	; 0x03
     c26:	e7 cf       	rjmp	.-50     	; 0xbf6 <_ZN12Adafruit_GFX9writeLineEiiiij+0xf6>
     c28:	0f 90       	pop	r0
     c2a:	0f 90       	pop	r0
     c2c:	0f 90       	pop	r0
     c2e:	df 91       	pop	r29
     c30:	cf 91       	pop	r28
     c32:	1f 91       	pop	r17
     c34:	0f 91       	pop	r16
     c36:	ff 90       	pop	r15
     c38:	ef 90       	pop	r14
     c3a:	df 90       	pop	r13
     c3c:	cf 90       	pop	r12
     c3e:	bf 90       	pop	r11
     c40:	af 90       	pop	r10
     c42:	9f 90       	pop	r9
     c44:	8f 90       	pop	r8
     c46:	7f 90       	pop	r7
     c48:	6f 90       	pop	r6
     c4a:	5f 90       	pop	r5
     c4c:	4f 90       	pop	r4
     c4e:	3f 90       	pop	r3
     c50:	2f 90       	pop	r2
     c52:	08 95       	ret

00000c54 <_ZN12Adafruit_GFX10startWriteEv>:
     c54:	08 95       	ret

00000c56 <_ZN12Adafruit_GFX10writePixelEiij>:
     c56:	dc 01       	movw	r26, r24
     c58:	ed 91       	ld	r30, X+
     c5a:	fc 91       	ld	r31, X
     c5c:	00 84       	ldd	r0, Z+8	; 0x08
     c5e:	f1 85       	ldd	r31, Z+9	; 0x09
     c60:	e0 2d       	mov	r30, r0
     c62:	09 94       	ijmp

00000c64 <_ZN12Adafruit_GFX14writeFastVLineEiiij>:
     c64:	0f 93       	push	r16
     c66:	1f 93       	push	r17
     c68:	dc 01       	movw	r26, r24
     c6a:	ed 91       	ld	r30, X+
     c6c:	fc 91       	ld	r31, X
     c6e:	04 8c       	ldd	r0, Z+28	; 0x1c
     c70:	f5 8d       	ldd	r31, Z+29	; 0x1d
     c72:	e0 2d       	mov	r30, r0
     c74:	09 95       	icall
     c76:	1f 91       	pop	r17
     c78:	0f 91       	pop	r16
     c7a:	08 95       	ret

00000c7c <_ZN12Adafruit_GFX14writeFastHLineEiiij>:
     c7c:	0f 93       	push	r16
     c7e:	1f 93       	push	r17
     c80:	dc 01       	movw	r26, r24
     c82:	ed 91       	ld	r30, X+
     c84:	fc 91       	ld	r31, X
     c86:	06 8c       	ldd	r0, Z+30	; 0x1e
     c88:	f7 8d       	ldd	r31, Z+31	; 0x1f
     c8a:	e0 2d       	mov	r30, r0
     c8c:	09 95       	icall
     c8e:	1f 91       	pop	r17
     c90:	0f 91       	pop	r16
     c92:	08 95       	ret

00000c94 <_ZN12Adafruit_GFX13writeFillRectEiiiij>:
     c94:	ef 92       	push	r14
     c96:	ff 92       	push	r15
     c98:	0f 93       	push	r16
     c9a:	1f 93       	push	r17
     c9c:	dc 01       	movw	r26, r24
     c9e:	ed 91       	ld	r30, X+
     ca0:	fc 91       	ld	r31, X
     ca2:	00 a0       	ldd	r0, Z+32	; 0x20
     ca4:	f1 a1       	ldd	r31, Z+33	; 0x21
     ca6:	e0 2d       	mov	r30, r0
     ca8:	09 95       	icall
     caa:	1f 91       	pop	r17
     cac:	0f 91       	pop	r16
     cae:	ff 90       	pop	r15
     cb0:	ef 90       	pop	r14
     cb2:	08 95       	ret

00000cb4 <_ZN12Adafruit_GFX8endWriteEv>:
     cb4:	08 95       	ret

00000cb6 <_ZN12Adafruit_GFX13drawFastVLineEiiij>:
     cb6:	af 92       	push	r10
     cb8:	bf 92       	push	r11
     cba:	cf 92       	push	r12
     cbc:	df 92       	push	r13
     cbe:	ef 92       	push	r14
     cc0:	ff 92       	push	r15
     cc2:	0f 93       	push	r16
     cc4:	1f 93       	push	r17
     cc6:	cf 93       	push	r28
     cc8:	df 93       	push	r29
     cca:	00 d0       	rcall	.+0      	; 0xccc <_ZN12Adafruit_GFX13drawFastVLineEiiij+0x16>
     ccc:	00 d0       	rcall	.+0      	; 0xcce <_ZN12Adafruit_GFX13drawFastVLineEiiij+0x18>
     cce:	cd b7       	in	r28, 0x3d	; 61
     cd0:	de b7       	in	r29, 0x3e	; 62
     cd2:	5c 01       	movw	r10, r24
     cd4:	69 01       	movw	r12, r18
     cd6:	dc 01       	movw	r26, r24
     cd8:	ed 91       	ld	r30, X+
     cda:	fc 91       	ld	r31, X
     cdc:	02 84       	ldd	r0, Z+10	; 0x0a
     cde:	f3 85       	ldd	r31, Z+11	; 0x0b
     ce0:	e0 2d       	mov	r30, r0
     ce2:	4b 83       	std	Y+3, r20	; 0x03
     ce4:	5c 83       	std	Y+4, r21	; 0x04
     ce6:	69 83       	std	Y+1, r22	; 0x01
     ce8:	7a 83       	std	Y+2, r23	; 0x02
     cea:	09 95       	icall
     cec:	d5 01       	movw	r26, r10
     cee:	ed 91       	ld	r30, X+
     cf0:	fc 91       	ld	r31, X
     cf2:	4b 81       	ldd	r20, Y+3	; 0x03
     cf4:	5c 81       	ldd	r21, Y+4	; 0x04
     cf6:	c4 0e       	add	r12, r20
     cf8:	d5 1e       	adc	r13, r21
     cfa:	b1 e0       	ldi	r27, 0x01	; 1
     cfc:	cb 1a       	sub	r12, r27
     cfe:	d1 08       	sbc	r13, r1
     d00:	04 88       	ldd	r0, Z+20	; 0x14
     d02:	f5 89       	ldd	r31, Z+21	; 0x15
     d04:	e0 2d       	mov	r30, r0
     d06:	78 01       	movw	r14, r16
     d08:	86 01       	movw	r16, r12
     d0a:	69 81       	ldd	r22, Y+1	; 0x01
     d0c:	7a 81       	ldd	r23, Y+2	; 0x02
     d0e:	9b 01       	movw	r18, r22
     d10:	c5 01       	movw	r24, r10
     d12:	09 95       	icall
     d14:	d5 01       	movw	r26, r10
     d16:	ed 91       	ld	r30, X+
     d18:	fc 91       	ld	r31, X
     d1a:	06 88       	ldd	r0, Z+22	; 0x16
     d1c:	f7 89       	ldd	r31, Z+23	; 0x17
     d1e:	e0 2d       	mov	r30, r0
     d20:	c5 01       	movw	r24, r10
     d22:	0f 90       	pop	r0
     d24:	0f 90       	pop	r0
     d26:	0f 90       	pop	r0
     d28:	0f 90       	pop	r0
     d2a:	df 91       	pop	r29
     d2c:	cf 91       	pop	r28
     d2e:	1f 91       	pop	r17
     d30:	0f 91       	pop	r16
     d32:	ff 90       	pop	r15
     d34:	ef 90       	pop	r14
     d36:	df 90       	pop	r13
     d38:	cf 90       	pop	r12
     d3a:	bf 90       	pop	r11
     d3c:	af 90       	pop	r10
     d3e:	09 94       	ijmp

00000d40 <_ZN12Adafruit_GFX13drawFastHLineEiiij>:
     d40:	af 92       	push	r10
     d42:	bf 92       	push	r11
     d44:	cf 92       	push	r12
     d46:	df 92       	push	r13
     d48:	ef 92       	push	r14
     d4a:	ff 92       	push	r15
     d4c:	0f 93       	push	r16
     d4e:	1f 93       	push	r17
     d50:	cf 93       	push	r28
     d52:	df 93       	push	r29
     d54:	00 d0       	rcall	.+0      	; 0xd56 <_ZN12Adafruit_GFX13drawFastHLineEiiij+0x16>
     d56:	00 d0       	rcall	.+0      	; 0xd58 <_ZN12Adafruit_GFX13drawFastHLineEiiij+0x18>
     d58:	cd b7       	in	r28, 0x3d	; 61
     d5a:	de b7       	in	r29, 0x3e	; 62
     d5c:	5c 01       	movw	r10, r24
     d5e:	69 01       	movw	r12, r18
     d60:	dc 01       	movw	r26, r24
     d62:	ed 91       	ld	r30, X+
     d64:	fc 91       	ld	r31, X
     d66:	02 84       	ldd	r0, Z+10	; 0x0a
     d68:	f3 85       	ldd	r31, Z+11	; 0x0b
     d6a:	e0 2d       	mov	r30, r0
     d6c:	4b 83       	std	Y+3, r20	; 0x03
     d6e:	5c 83       	std	Y+4, r21	; 0x04
     d70:	69 83       	std	Y+1, r22	; 0x01
     d72:	7a 83       	std	Y+2, r23	; 0x02
     d74:	09 95       	icall
     d76:	d5 01       	movw	r26, r10
     d78:	ed 91       	ld	r30, X+
     d7a:	fc 91       	ld	r31, X
     d7c:	69 81       	ldd	r22, Y+1	; 0x01
     d7e:	7a 81       	ldd	r23, Y+2	; 0x02
     d80:	9b 01       	movw	r18, r22
     d82:	2c 0d       	add	r18, r12
     d84:	3d 1d       	adc	r19, r13
     d86:	21 50       	subi	r18, 0x01	; 1
     d88:	31 09       	sbc	r19, r1
     d8a:	04 88       	ldd	r0, Z+20	; 0x14
     d8c:	f5 89       	ldd	r31, Z+21	; 0x15
     d8e:	e0 2d       	mov	r30, r0
     d90:	78 01       	movw	r14, r16
     d92:	4b 81       	ldd	r20, Y+3	; 0x03
     d94:	5c 81       	ldd	r21, Y+4	; 0x04
     d96:	8a 01       	movw	r16, r20
     d98:	c5 01       	movw	r24, r10
     d9a:	09 95       	icall
     d9c:	d5 01       	movw	r26, r10
     d9e:	ed 91       	ld	r30, X+
     da0:	fc 91       	ld	r31, X
     da2:	06 88       	ldd	r0, Z+22	; 0x16
     da4:	f7 89       	ldd	r31, Z+23	; 0x17
     da6:	e0 2d       	mov	r30, r0
     da8:	c5 01       	movw	r24, r10
     daa:	0f 90       	pop	r0
     dac:	0f 90       	pop	r0
     dae:	0f 90       	pop	r0
     db0:	0f 90       	pop	r0
     db2:	df 91       	pop	r29
     db4:	cf 91       	pop	r28
     db6:	1f 91       	pop	r17
     db8:	0f 91       	pop	r16
     dba:	ff 90       	pop	r15
     dbc:	ef 90       	pop	r14
     dbe:	df 90       	pop	r13
     dc0:	cf 90       	pop	r12
     dc2:	bf 90       	pop	r11
     dc4:	af 90       	pop	r10
     dc6:	09 94       	ijmp

00000dc8 <_ZN12Adafruit_GFX8fillRectEiiiij>:
     dc8:	4f 92       	push	r4
     dca:	5f 92       	push	r5
     dcc:	6f 92       	push	r6
     dce:	7f 92       	push	r7
     dd0:	8f 92       	push	r8
     dd2:	9f 92       	push	r9
     dd4:	af 92       	push	r10
     dd6:	bf 92       	push	r11
     dd8:	cf 92       	push	r12
     dda:	df 92       	push	r13
     ddc:	ef 92       	push	r14
     dde:	ff 92       	push	r15
     de0:	0f 93       	push	r16
     de2:	1f 93       	push	r17
     de4:	cf 93       	push	r28
     de6:	df 93       	push	r29
     de8:	00 d0       	rcall	.+0      	; 0xdea <_ZN12Adafruit_GFX8fillRectEiiiij+0x22>
     dea:	cd b7       	in	r28, 0x3d	; 61
     dec:	de b7       	in	r29, 0x3e	; 62
     dee:	6c 01       	movw	r12, r24
     df0:	5a 01       	movw	r10, r20
     df2:	39 01       	movw	r6, r18
     df4:	48 01       	movw	r8, r16
     df6:	dc 01       	movw	r26, r24
     df8:	ed 91       	ld	r30, X+
     dfa:	fc 91       	ld	r31, X
     dfc:	02 84       	ldd	r0, Z+10	; 0x0a
     dfe:	f3 85       	ldd	r31, Z+11	; 0x0b
     e00:	e0 2d       	mov	r30, r0
     e02:	69 83       	std	Y+1, r22	; 0x01
     e04:	7a 83       	std	Y+2, r23	; 0x02
     e06:	09 95       	icall
     e08:	69 81       	ldd	r22, Y+1	; 0x01
     e0a:	46 2e       	mov	r4, r22
     e0c:	7a 81       	ldd	r23, Y+2	; 0x02
     e0e:	57 2e       	mov	r5, r23
     e10:	64 0c       	add	r6, r4
     e12:	75 1c       	adc	r7, r5
     e14:	d6 01       	movw	r26, r12
     e16:	ed 91       	ld	r30, X+
     e18:	fc 91       	ld	r31, X
     e1a:	46 14       	cp	r4, r6
     e1c:	57 04       	cpc	r5, r7
     e1e:	6c f4       	brge	.+26     	; 0xe3a <_ZN12Adafruit_GFX8fillRectEiiiij+0x72>
     e20:	00 88       	ldd	r0, Z+16	; 0x10
     e22:	f1 89       	ldd	r31, Z+17	; 0x11
     e24:	e0 2d       	mov	r30, r0
     e26:	87 01       	movw	r16, r14
     e28:	94 01       	movw	r18, r8
     e2a:	a5 01       	movw	r20, r10
     e2c:	b2 01       	movw	r22, r4
     e2e:	c6 01       	movw	r24, r12
     e30:	09 95       	icall
     e32:	bf ef       	ldi	r27, 0xFF	; 255
     e34:	4b 1a       	sub	r4, r27
     e36:	5b 0a       	sbc	r5, r27
     e38:	ed cf       	rjmp	.-38     	; 0xe14 <_ZN12Adafruit_GFX8fillRectEiiiij+0x4c>
     e3a:	06 88       	ldd	r0, Z+22	; 0x16
     e3c:	f7 89       	ldd	r31, Z+23	; 0x17
     e3e:	e0 2d       	mov	r30, r0
     e40:	c6 01       	movw	r24, r12
     e42:	0f 90       	pop	r0
     e44:	0f 90       	pop	r0
     e46:	df 91       	pop	r29
     e48:	cf 91       	pop	r28
     e4a:	1f 91       	pop	r17
     e4c:	0f 91       	pop	r16
     e4e:	ff 90       	pop	r15
     e50:	ef 90       	pop	r14
     e52:	df 90       	pop	r13
     e54:	cf 90       	pop	r12
     e56:	bf 90       	pop	r11
     e58:	af 90       	pop	r10
     e5a:	9f 90       	pop	r9
     e5c:	8f 90       	pop	r8
     e5e:	7f 90       	pop	r7
     e60:	6f 90       	pop	r6
     e62:	5f 90       	pop	r5
     e64:	4f 90       	pop	r4
     e66:	09 94       	ijmp

00000e68 <_ZN12Adafruit_GFX10fillScreenEj>:
     e68:	ef 92       	push	r14
     e6a:	ff 92       	push	r15
     e6c:	0f 93       	push	r16
     e6e:	1f 93       	push	r17
     e70:	dc 01       	movw	r26, r24
     e72:	ed 91       	ld	r30, X+
     e74:	fc 91       	ld	r31, X
     e76:	11 97       	sbiw	r26, 0x01	; 1
     e78:	1a 96       	adiw	r26, 0x0a	; 10
     e7a:	0d 91       	ld	r16, X+
     e7c:	1c 91       	ld	r17, X
     e7e:	1b 97       	sbiw	r26, 0x0b	; 11
     e80:	18 96       	adiw	r26, 0x08	; 8
     e82:	2d 91       	ld	r18, X+
     e84:	3c 91       	ld	r19, X
     e86:	19 97       	sbiw	r26, 0x09	; 9
     e88:	00 a0       	ldd	r0, Z+32	; 0x20
     e8a:	f1 a1       	ldd	r31, Z+33	; 0x21
     e8c:	e0 2d       	mov	r30, r0
     e8e:	7b 01       	movw	r14, r22
     e90:	40 e0       	ldi	r20, 0x00	; 0
     e92:	50 e0       	ldi	r21, 0x00	; 0
     e94:	60 e0       	ldi	r22, 0x00	; 0
     e96:	70 e0       	ldi	r23, 0x00	; 0
     e98:	09 95       	icall
     e9a:	1f 91       	pop	r17
     e9c:	0f 91       	pop	r16
     e9e:	ff 90       	pop	r15
     ea0:	ef 90       	pop	r14
     ea2:	08 95       	ret

00000ea4 <_ZN12Adafruit_GFX8drawLineEiiiij>:
     ea4:	cf 92       	push	r12
     ea6:	df 92       	push	r13
     ea8:	ef 92       	push	r14
     eaa:	ff 92       	push	r15
     eac:	0f 93       	push	r16
     eae:	1f 93       	push	r17
     eb0:	cf 93       	push	r28
     eb2:	df 93       	push	r29
     eb4:	00 d0       	rcall	.+0      	; 0xeb6 <_ZN12Adafruit_GFX8drawLineEiiiij+0x12>
     eb6:	00 d0       	rcall	.+0      	; 0xeb8 <_ZN12Adafruit_GFX8drawLineEiiiij+0x14>
     eb8:	00 d0       	rcall	.+0      	; 0xeba <_ZN12Adafruit_GFX8drawLineEiiiij+0x16>
     eba:	cd b7       	in	r28, 0x3d	; 61
     ebc:	de b7       	in	r29, 0x3e	; 62
     ebe:	6c 01       	movw	r12, r24
     ec0:	dc 01       	movw	r26, r24
     ec2:	ed 91       	ld	r30, X+
     ec4:	fc 91       	ld	r31, X
     ec6:	62 17       	cp	r22, r18
     ec8:	73 07       	cpc	r23, r19
     eca:	89 f4       	brne	.+34     	; 0xeee <_ZN12Adafruit_GFX8drawLineEiiiij+0x4a>
     ecc:	04 17       	cp	r16, r20
     ece:	15 07       	cpc	r17, r21
     ed0:	2c f4       	brge	.+10     	; 0xedc <_ZN12Adafruit_GFX8drawLineEiiiij+0x38>
     ed2:	94 2f       	mov	r25, r20
     ed4:	85 2f       	mov	r24, r21
     ed6:	a8 01       	movw	r20, r16
     ed8:	09 2f       	mov	r16, r25
     eda:	18 2f       	mov	r17, r24
     edc:	04 1b       	sub	r16, r20
     ede:	15 0b       	sbc	r17, r21
     ee0:	98 01       	movw	r18, r16
     ee2:	2f 5f       	subi	r18, 0xFF	; 255
     ee4:	3f 4f       	sbci	r19, 0xFF	; 255
     ee6:	04 8c       	ldd	r0, Z+28	; 0x1c
     ee8:	f5 8d       	ldd	r31, Z+29	; 0x1d
     eea:	e0 2d       	mov	r30, r0
     eec:	12 c0       	rjmp	.+36     	; 0xf12 <_ZN12Adafruit_GFX8drawLineEiiiij+0x6e>
     eee:	40 17       	cp	r20, r16
     ef0:	51 07       	cpc	r21, r17
     ef2:	09 f5       	brne	.+66     	; 0xf36 <_ZN12Adafruit_GFX8drawLineEiiiij+0x92>
     ef4:	26 17       	cp	r18, r22
     ef6:	37 07       	cpc	r19, r23
     ef8:	2c f4       	brge	.+10     	; 0xf04 <_ZN12Adafruit_GFX8drawLineEiiiij+0x60>
     efa:	96 2f       	mov	r25, r22
     efc:	87 2f       	mov	r24, r23
     efe:	b9 01       	movw	r22, r18
     f00:	29 2f       	mov	r18, r25
     f02:	38 2f       	mov	r19, r24
     f04:	26 1b       	sub	r18, r22
     f06:	37 0b       	sbc	r19, r23
     f08:	2f 5f       	subi	r18, 0xFF	; 255
     f0a:	3f 4f       	sbci	r19, 0xFF	; 255
     f0c:	06 8c       	ldd	r0, Z+30	; 0x1e
     f0e:	f7 8d       	ldd	r31, Z+31	; 0x1f
     f10:	e0 2d       	mov	r30, r0
     f12:	87 01       	movw	r16, r14
     f14:	c6 01       	movw	r24, r12
     f16:	09 95       	icall
     f18:	26 96       	adiw	r28, 0x06	; 6
     f1a:	0f b6       	in	r0, 0x3f	; 63
     f1c:	f8 94       	cli
     f1e:	de bf       	out	0x3e, r29	; 62
     f20:	0f be       	out	0x3f, r0	; 63
     f22:	cd bf       	out	0x3d, r28	; 61
     f24:	df 91       	pop	r29
     f26:	cf 91       	pop	r28
     f28:	1f 91       	pop	r17
     f2a:	0f 91       	pop	r16
     f2c:	ff 90       	pop	r15
     f2e:	ef 90       	pop	r14
     f30:	df 90       	pop	r13
     f32:	cf 90       	pop	r12
     f34:	08 95       	ret
     f36:	02 84       	ldd	r0, Z+10	; 0x0a
     f38:	f3 85       	ldd	r31, Z+11	; 0x0b
     f3a:	e0 2d       	mov	r30, r0
     f3c:	2d 83       	std	Y+5, r18	; 0x05
     f3e:	3e 83       	std	Y+6, r19	; 0x06
     f40:	4b 83       	std	Y+3, r20	; 0x03
     f42:	5c 83       	std	Y+4, r21	; 0x04
     f44:	69 83       	std	Y+1, r22	; 0x01
     f46:	7a 83       	std	Y+2, r23	; 0x02
     f48:	09 95       	icall
     f4a:	d6 01       	movw	r26, r12
     f4c:	ed 91       	ld	r30, X+
     f4e:	fc 91       	ld	r31, X
     f50:	04 88       	ldd	r0, Z+20	; 0x14
     f52:	f5 89       	ldd	r31, Z+21	; 0x15
     f54:	e0 2d       	mov	r30, r0
     f56:	2d 81       	ldd	r18, Y+5	; 0x05
     f58:	3e 81       	ldd	r19, Y+6	; 0x06
     f5a:	4b 81       	ldd	r20, Y+3	; 0x03
     f5c:	5c 81       	ldd	r21, Y+4	; 0x04
     f5e:	69 81       	ldd	r22, Y+1	; 0x01
     f60:	7a 81       	ldd	r23, Y+2	; 0x02
     f62:	c6 01       	movw	r24, r12
     f64:	09 95       	icall
     f66:	d6 01       	movw	r26, r12
     f68:	ed 91       	ld	r30, X+
     f6a:	fc 91       	ld	r31, X
     f6c:	06 88       	ldd	r0, Z+22	; 0x16
     f6e:	f7 89       	ldd	r31, Z+23	; 0x17
     f70:	e0 2d       	mov	r30, r0
     f72:	c6 01       	movw	r24, r12
     f74:	26 96       	adiw	r28, 0x06	; 6
     f76:	0f b6       	in	r0, 0x3f	; 63
     f78:	f8 94       	cli
     f7a:	de bf       	out	0x3e, r29	; 62
     f7c:	0f be       	out	0x3f, r0	; 63
     f7e:	cd bf       	out	0x3d, r28	; 61
     f80:	df 91       	pop	r29
     f82:	cf 91       	pop	r28
     f84:	1f 91       	pop	r17
     f86:	0f 91       	pop	r16
     f88:	ff 90       	pop	r15
     f8a:	ef 90       	pop	r14
     f8c:	df 90       	pop	r13
     f8e:	cf 90       	pop	r12
     f90:	09 94       	ijmp

00000f92 <_ZN12Adafruit_GFX8drawRectEiiiij>:
     f92:	6f 92       	push	r6
     f94:	7f 92       	push	r7
     f96:	8f 92       	push	r8
     f98:	9f 92       	push	r9
     f9a:	af 92       	push	r10
     f9c:	bf 92       	push	r11
     f9e:	cf 92       	push	r12
     fa0:	df 92       	push	r13
     fa2:	ef 92       	push	r14
     fa4:	ff 92       	push	r15
     fa6:	0f 93       	push	r16
     fa8:	1f 93       	push	r17
     faa:	cf 93       	push	r28
     fac:	df 93       	push	r29
     fae:	ec 01       	movw	r28, r24
     fb0:	4b 01       	movw	r8, r22
     fb2:	5a 01       	movw	r10, r20
     fb4:	69 01       	movw	r12, r18
     fb6:	38 01       	movw	r6, r16
     fb8:	e8 81       	ld	r30, Y
     fba:	f9 81       	ldd	r31, Y+1	; 0x01
     fbc:	02 84       	ldd	r0, Z+10	; 0x0a
     fbe:	f3 85       	ldd	r31, Z+11	; 0x0b
     fc0:	e0 2d       	mov	r30, r0
     fc2:	09 95       	icall
     fc4:	e8 81       	ld	r30, Y
     fc6:	f9 81       	ldd	r31, Y+1	; 0x01
     fc8:	02 88       	ldd	r0, Z+18	; 0x12
     fca:	f3 89       	ldd	r31, Z+19	; 0x13
     fcc:	e0 2d       	mov	r30, r0
     fce:	87 01       	movw	r16, r14
     fd0:	96 01       	movw	r18, r12
     fd2:	a5 01       	movw	r20, r10
     fd4:	b4 01       	movw	r22, r8
     fd6:	ce 01       	movw	r24, r28
     fd8:	09 95       	icall
     fda:	e8 81       	ld	r30, Y
     fdc:	f9 81       	ldd	r31, Y+1	; 0x01
     fde:	a5 01       	movw	r20, r10
     fe0:	46 0d       	add	r20, r6
     fe2:	57 1d       	adc	r21, r7
     fe4:	41 50       	subi	r20, 0x01	; 1
     fe6:	51 09       	sbc	r21, r1
     fe8:	02 88       	ldd	r0, Z+18	; 0x12
     fea:	f3 89       	ldd	r31, Z+19	; 0x13
     fec:	e0 2d       	mov	r30, r0
     fee:	96 01       	movw	r18, r12
     ff0:	b4 01       	movw	r22, r8
     ff2:	ce 01       	movw	r24, r28
     ff4:	09 95       	icall
     ff6:	e8 81       	ld	r30, Y
     ff8:	f9 81       	ldd	r31, Y+1	; 0x01
     ffa:	00 88       	ldd	r0, Z+16	; 0x10
     ffc:	f1 89       	ldd	r31, Z+17	; 0x11
     ffe:	e0 2d       	mov	r30, r0
    1000:	93 01       	movw	r18, r6
    1002:	a5 01       	movw	r20, r10
    1004:	b4 01       	movw	r22, r8
    1006:	ce 01       	movw	r24, r28
    1008:	09 95       	icall
    100a:	e8 81       	ld	r30, Y
    100c:	f9 81       	ldd	r31, Y+1	; 0x01
    100e:	c8 0c       	add	r12, r8
    1010:	d9 1c       	adc	r13, r9
    1012:	b6 01       	movw	r22, r12
    1014:	61 50       	subi	r22, 0x01	; 1
    1016:	71 09       	sbc	r23, r1
    1018:	00 88       	ldd	r0, Z+16	; 0x10
    101a:	f1 89       	ldd	r31, Z+17	; 0x11
    101c:	e0 2d       	mov	r30, r0
    101e:	93 01       	movw	r18, r6
    1020:	a5 01       	movw	r20, r10
    1022:	ce 01       	movw	r24, r28
    1024:	09 95       	icall
    1026:	e8 81       	ld	r30, Y
    1028:	f9 81       	ldd	r31, Y+1	; 0x01
    102a:	06 88       	ldd	r0, Z+22	; 0x16
    102c:	f7 89       	ldd	r31, Z+23	; 0x17
    102e:	e0 2d       	mov	r30, r0
    1030:	ce 01       	movw	r24, r28
    1032:	df 91       	pop	r29
    1034:	cf 91       	pop	r28
    1036:	1f 91       	pop	r17
    1038:	0f 91       	pop	r16
    103a:	ff 90       	pop	r15
    103c:	ef 90       	pop	r14
    103e:	df 90       	pop	r13
    1040:	cf 90       	pop	r12
    1042:	bf 90       	pop	r11
    1044:	af 90       	pop	r10
    1046:	9f 90       	pop	r9
    1048:	8f 90       	pop	r8
    104a:	7f 90       	pop	r7
    104c:	6f 90       	pop	r6
    104e:	09 94       	ijmp

00001050 <_ZN12Adafruit_GFX13invertDisplayEb>:
    1050:	08 95       	ret

00001052 <_ZN12Adafruit_GFX11setRotationEh>:
    1052:	fc 01       	movw	r30, r24
    1054:	63 70       	andi	r22, 0x03	; 3
    1056:	65 8b       	std	Z+21, r22	; 0x15
    1058:	84 81       	ldd	r24, Z+4	; 0x04
    105a:	95 81       	ldd	r25, Z+5	; 0x05
    105c:	26 81       	ldd	r18, Z+6	; 0x06
    105e:	37 81       	ldd	r19, Z+7	; 0x07
    1060:	61 30       	cpi	r22, 0x01	; 1
    1062:	39 f0       	breq	.+14     	; 0x1072 <_ZN12Adafruit_GFX11setRotationEh+0x20>
    1064:	63 30       	cpi	r22, 0x03	; 3
    1066:	29 f0       	breq	.+10     	; 0x1072 <_ZN12Adafruit_GFX11setRotationEh+0x20>
    1068:	91 87       	std	Z+9, r25	; 0x09
    106a:	80 87       	std	Z+8, r24	; 0x08
    106c:	33 87       	std	Z+11, r19	; 0x0b
    106e:	22 87       	std	Z+10, r18	; 0x0a
    1070:	08 95       	ret
    1072:	31 87       	std	Z+9, r19	; 0x09
    1074:	20 87       	std	Z+8, r18	; 0x08
    1076:	93 87       	std	Z+11, r25	; 0x0b
    1078:	82 87       	std	Z+10, r24	; 0x0a
    107a:	08 95       	ret

0000107c <_ZN12Adafruit_GFXC1Eii>:
    107c:	fc 01       	movw	r30, r24
    107e:	13 82       	std	Z+3, r1	; 0x03
    1080:	12 82       	std	Z+2, r1	; 0x02
    1082:	86 e5       	ldi	r24, 0x56	; 86
    1084:	95 e0       	ldi	r25, 0x05	; 5
    1086:	91 83       	std	Z+1, r25	; 0x01
    1088:	80 83       	st	Z, r24
    108a:	75 83       	std	Z+5, r23	; 0x05
    108c:	64 83       	std	Z+4, r22	; 0x04
    108e:	57 83       	std	Z+7, r21	; 0x07
    1090:	46 83       	std	Z+6, r20	; 0x06
    1092:	71 87       	std	Z+9, r23	; 0x09
    1094:	60 87       	std	Z+8, r22	; 0x08
    1096:	53 87       	std	Z+11, r21	; 0x0b
    1098:	42 87       	std	Z+10, r20	; 0x0a
    109a:	15 8a       	std	Z+21, r1	; 0x15
    109c:	15 86       	std	Z+13, r1	; 0x0d
    109e:	14 86       	std	Z+12, r1	; 0x0c
    10a0:	17 86       	std	Z+15, r1	; 0x0f
    10a2:	16 86       	std	Z+14, r1	; 0x0e
    10a4:	81 e0       	ldi	r24, 0x01	; 1
    10a6:	84 8b       	std	Z+20, r24	; 0x14
    10a8:	2f ef       	ldi	r18, 0xFF	; 255
    10aa:	3f ef       	ldi	r19, 0xFF	; 255
    10ac:	33 8b       	std	Z+19, r19	; 0x13
    10ae:	22 8b       	std	Z+18, r18	; 0x12
    10b0:	31 8b       	std	Z+17, r19	; 0x11
    10b2:	20 8b       	std	Z+16, r18	; 0x10
    10b4:	86 8b       	std	Z+22, r24	; 0x16
    10b6:	17 8a       	std	Z+23, r1	; 0x17
    10b8:	11 8e       	std	Z+25, r1	; 0x19
    10ba:	10 8e       	std	Z+24, r1	; 0x18
    10bc:	08 95       	ret

000010be <_ZN12Adafruit_GFX8drawCharEiihjjh>:
    10be:	2f 92       	push	r2
    10c0:	3f 92       	push	r3
    10c2:	4f 92       	push	r4
    10c4:	5f 92       	push	r5
    10c6:	6f 92       	push	r6
    10c8:	7f 92       	push	r7
    10ca:	8f 92       	push	r8
    10cc:	9f 92       	push	r9
    10ce:	af 92       	push	r10
    10d0:	bf 92       	push	r11
    10d2:	cf 92       	push	r12
    10d4:	df 92       	push	r13
    10d6:	ef 92       	push	r14
    10d8:	ff 92       	push	r15
    10da:	0f 93       	push	r16
    10dc:	1f 93       	push	r17
    10de:	cf 93       	push	r28
    10e0:	df 93       	push	r29
    10e2:	cd b7       	in	r28, 0x3d	; 61
    10e4:	de b7       	in	r29, 0x3e	; 62
    10e6:	6c 97       	sbiw	r28, 0x1c	; 28
    10e8:	0f b6       	in	r0, 0x3f	; 63
    10ea:	f8 94       	cli
    10ec:	de bf       	out	0x3e, r29	; 62
    10ee:	0f be       	out	0x3f, r0	; 63
    10f0:	cd bf       	out	0x3d, r28	; 61
    10f2:	9c 8f       	std	Y+28, r25	; 0x1c
    10f4:	8b 8f       	std	Y+27, r24	; 0x1b
    10f6:	5b 01       	movw	r10, r22
    10f8:	1a 01       	movw	r2, r20
    10fa:	1f 83       	std	Y+7, r17	; 0x07
    10fc:	0e 83       	std	Y+6, r16	; 0x06
    10fe:	37 01       	movw	r6, r14
    1100:	c9 82       	std	Y+1, r12	; 0x01
    1102:	dc 01       	movw	r26, r24
    1104:	58 96       	adiw	r26, 0x18	; 24
    1106:	4d 91       	ld	r20, X+
    1108:	5c 91       	ld	r21, X
    110a:	59 97       	sbiw	r26, 0x19	; 25
    110c:	41 15       	cp	r20, r1
    110e:	51 05       	cpc	r21, r1
    1110:	09 f0       	breq	.+2      	; 0x1114 <_ZN12Adafruit_GFX8drawCharEiihjjh+0x56>
    1112:	e5 c0       	rjmp	.+458    	; 0x12de <_ZN12Adafruit_GFX8drawCharEiihjjh+0x220>
    1114:	18 96       	adiw	r26, 0x08	; 8
    1116:	8d 91       	ld	r24, X+
    1118:	9c 91       	ld	r25, X
    111a:	19 97       	sbiw	r26, 0x09	; 9
    111c:	68 17       	cp	r22, r24
    111e:	79 07       	cpc	r23, r25
    1120:	0c f0       	brlt	.+2      	; 0x1124 <_ZN12Adafruit_GFX8drawCharEiihjjh+0x66>
    1122:	ca c1       	rjmp	.+916    	; 0x14b8 <_ZN12Adafruit_GFX8drawCharEiihjjh+0x3fa>
    1124:	1a 96       	adiw	r26, 0x0a	; 10
    1126:	8d 91       	ld	r24, X+
    1128:	9c 91       	ld	r25, X
    112a:	1b 97       	sbiw	r26, 0x0b	; 11
    112c:	28 16       	cp	r2, r24
    112e:	39 06       	cpc	r3, r25
    1130:	0c f0       	brlt	.+2      	; 0x1134 <_ZN12Adafruit_GFX8drawCharEiihjjh+0x76>
    1132:	c2 c1       	rjmp	.+900    	; 0x14b8 <_ZN12Adafruit_GFX8drawCharEiihjjh+0x3fa>
    1134:	8c 2c       	mov	r8, r12
    1136:	91 2c       	mov	r9, r1
    1138:	fb 01       	movw	r30, r22
    113a:	36 e0       	ldi	r19, 0x06	; 6
    113c:	c3 9e       	mul	r12, r19
    113e:	e0 0d       	add	r30, r0
    1140:	f1 1d       	adc	r31, r1
    1142:	11 24       	eor	r1, r1
    1144:	fb 87       	std	Y+11, r31	; 0x0b
    1146:	ea 87       	std	Y+10, r30	; 0x0a
    1148:	1e 16       	cp	r1, r30
    114a:	1f 06       	cpc	r1, r31
    114c:	0c f0       	brlt	.+2      	; 0x1150 <_ZN12Adafruit_GFX8drawCharEiihjjh+0x92>
    114e:	b4 c1       	rjmp	.+872    	; 0x14b8 <_ZN12Adafruit_GFX8drawCharEiihjjh+0x3fa>
    1150:	c4 01       	movw	r24, r8
    1152:	33 e0       	ldi	r19, 0x03	; 3
    1154:	88 0f       	add	r24, r24
    1156:	99 1f       	adc	r25, r25
    1158:	3a 95       	dec	r19
    115a:	e1 f7       	brne	.-8      	; 0x1154 <_ZN12Adafruit_GFX8drawCharEiihjjh+0x96>
    115c:	9d 87       	std	Y+13, r25	; 0x0d
    115e:	8c 87       	std	Y+12, r24	; 0x0c
    1160:	82 0d       	add	r24, r2
    1162:	93 1d       	adc	r25, r3
    1164:	18 16       	cp	r1, r24
    1166:	19 06       	cpc	r1, r25
    1168:	0c f0       	brlt	.+2      	; 0x116c <_ZN12Adafruit_GFX8drawCharEiihjjh+0xae>
    116a:	a6 c1       	rjmp	.+844    	; 0x14b8 <_ZN12Adafruit_GFX8drawCharEiihjjh+0x3fa>
    116c:	57 96       	adiw	r26, 0x17	; 23
    116e:	8c 91       	ld	r24, X
    1170:	81 11       	cpse	r24, r1
    1172:	03 c0       	rjmp	.+6      	; 0x117a <_ZN12Adafruit_GFX8drawCharEiihjjh+0xbc>
    1174:	20 3b       	cpi	r18, 0xB0	; 176
    1176:	08 f0       	brcs	.+2      	; 0x117a <_ZN12Adafruit_GFX8drawCharEiihjjh+0xbc>
    1178:	2f 5f       	subi	r18, 0xFF	; 255
    117a:	ab 8d       	ldd	r26, Y+27	; 0x1b
    117c:	bc 8d       	ldd	r27, Y+28	; 0x1c
    117e:	ed 91       	ld	r30, X+
    1180:	fc 91       	ld	r31, X
    1182:	11 97       	sbiw	r26, 0x01	; 1
    1184:	02 84       	ldd	r0, Z+10	; 0x0a
    1186:	f3 85       	ldd	r31, Z+11	; 0x0b
    1188:	e0 2d       	mov	r30, r0
    118a:	cd 01       	movw	r24, r26
    118c:	2a 8f       	std	Y+26, r18	; 0x1a
    118e:	09 95       	icall
    1190:	2a 8d       	ldd	r18, Y+26	; 0x1a
    1192:	b5 e0       	ldi	r27, 0x05	; 5
    1194:	2b 9f       	mul	r18, r27
    1196:	90 01       	movw	r18, r0
    1198:	11 24       	eor	r1, r1
    119a:	f5 01       	movw	r30, r10
    119c:	35 96       	adiw	r30, 0x05	; 5
    119e:	ff 87       	std	Y+15, r31	; 0x0f
    11a0:	ee 87       	std	Y+14, r30	; 0x0e
    11a2:	25 01       	movw	r4, r10
    11a4:	bb 82       	std	Y+3, r11	; 0x03
    11a6:	aa 82       	std	Y+2, r10	; 0x02
    11a8:	a9 01       	movw	r20, r18
    11aa:	4a 19       	sub	r20, r10
    11ac:	5b 09       	sbc	r21, r11
    11ae:	59 8b       	std	Y+17, r21	; 0x11
    11b0:	48 8b       	std	Y+16, r20	; 0x10
    11b2:	c1 01       	movw	r24, r2
    11b4:	08 96       	adiw	r24, 0x08	; 8
    11b6:	9b 8b       	std	Y+19, r25	; 0x13
    11b8:	8a 8b       	std	Y+18, r24	; 0x12
    11ba:	e8 89       	ldd	r30, Y+16	; 0x10
    11bc:	f9 89       	ldd	r31, Y+17	; 0x11
    11be:	e4 0d       	add	r30, r4
    11c0:	f5 1d       	adc	r31, r5
    11c2:	e8 59       	subi	r30, 0x98	; 152
    11c4:	ff 4f       	sbci	r31, 0xFF	; 255
    11c6:	94 91       	lpm	r25, Z
    11c8:	98 87       	std	Y+8, r25	; 0x08
    11ca:	3d 82       	std	Y+5, r3	; 0x05
    11cc:	2c 82       	std	Y+4, r2	; 0x04
    11ce:	61 01       	movw	r12, r2
    11d0:	a8 85       	ldd	r26, Y+8	; 0x08
    11d2:	a0 ff       	sbrs	r26, 0
    11d4:	13 c0       	rjmp	.+38     	; 0x11fc <_ZN12Adafruit_GFX8drawCharEiihjjh+0x13e>
    11d6:	ab 8d       	ldd	r26, Y+27	; 0x1b
    11d8:	bc 8d       	ldd	r27, Y+28	; 0x1c
    11da:	ed 91       	ld	r30, X+
    11dc:	fc 91       	ld	r31, X
    11de:	b9 81       	ldd	r27, Y+1	; 0x01
    11e0:	b1 30       	cpi	r27, 0x01	; 1
    11e2:	31 f4       	brne	.+12     	; 0x11f0 <_ZN12Adafruit_GFX8drawCharEiihjjh+0x132>
    11e4:	04 84       	ldd	r0, Z+12	; 0x0c
    11e6:	f5 85       	ldd	r31, Z+13	; 0x0d
    11e8:	e0 2d       	mov	r30, r0
    11ea:	2e 81       	ldd	r18, Y+6	; 0x06
    11ec:	3f 81       	ldd	r19, Y+7	; 0x07
    11ee:	16 c0       	rjmp	.+44     	; 0x121c <_ZN12Adafruit_GFX8drawCharEiihjjh+0x15e>
    11f0:	06 84       	ldd	r0, Z+14	; 0x0e
    11f2:	f7 85       	ldd	r31, Z+15	; 0x0f
    11f4:	e0 2d       	mov	r30, r0
    11f6:	ee 80       	ldd	r14, Y+6	; 0x06
    11f8:	ff 80       	ldd	r15, Y+7	; 0x07
    11fa:	1a c0       	rjmp	.+52     	; 0x1230 <_ZN12Adafruit_GFX8drawCharEiihjjh+0x172>
    11fc:	ee 81       	ldd	r30, Y+6	; 0x06
    11fe:	ff 81       	ldd	r31, Y+7	; 0x07
    1200:	6e 16       	cp	r6, r30
    1202:	7f 06       	cpc	r7, r31
    1204:	f1 f0       	breq	.+60     	; 0x1242 <_ZN12Adafruit_GFX8drawCharEiihjjh+0x184>
    1206:	ab 8d       	ldd	r26, Y+27	; 0x1b
    1208:	bc 8d       	ldd	r27, Y+28	; 0x1c
    120a:	ed 91       	ld	r30, X+
    120c:	fc 91       	ld	r31, X
    120e:	b9 81       	ldd	r27, Y+1	; 0x01
    1210:	b1 30       	cpi	r27, 0x01	; 1
    1212:	51 f4       	brne	.+20     	; 0x1228 <_ZN12Adafruit_GFX8drawCharEiihjjh+0x16a>
    1214:	04 84       	ldd	r0, Z+12	; 0x0c
    1216:	f5 85       	ldd	r31, Z+13	; 0x0d
    1218:	e0 2d       	mov	r30, r0
    121a:	93 01       	movw	r18, r6
    121c:	a6 01       	movw	r20, r12
    121e:	b2 01       	movw	r22, r4
    1220:	8b 8d       	ldd	r24, Y+27	; 0x1b
    1222:	9c 8d       	ldd	r25, Y+28	; 0x1c
    1224:	09 95       	icall
    1226:	0d c0       	rjmp	.+26     	; 0x1242 <_ZN12Adafruit_GFX8drawCharEiihjjh+0x184>
    1228:	06 84       	ldd	r0, Z+14	; 0x0e
    122a:	f7 85       	ldd	r31, Z+15	; 0x0f
    122c:	e0 2d       	mov	r30, r0
    122e:	73 01       	movw	r14, r6
    1230:	84 01       	movw	r16, r8
    1232:	94 01       	movw	r18, r8
    1234:	4c 81       	ldd	r20, Y+4	; 0x04
    1236:	5d 81       	ldd	r21, Y+5	; 0x05
    1238:	6a 81       	ldd	r22, Y+2	; 0x02
    123a:	7b 81       	ldd	r23, Y+3	; 0x03
    123c:	8b 8d       	ldd	r24, Y+27	; 0x1b
    123e:	9c 8d       	ldd	r25, Y+28	; 0x1c
    1240:	09 95       	icall
    1242:	e8 85       	ldd	r30, Y+8	; 0x08
    1244:	e6 95       	lsr	r30
    1246:	e8 87       	std	Y+8, r30	; 0x08
    1248:	2c 81       	ldd	r18, Y+4	; 0x04
    124a:	3d 81       	ldd	r19, Y+5	; 0x05
    124c:	28 0d       	add	r18, r8
    124e:	39 1d       	adc	r19, r9
    1250:	3d 83       	std	Y+5, r19	; 0x05
    1252:	2c 83       	std	Y+4, r18	; 0x04
    1254:	3f ef       	ldi	r19, 0xFF	; 255
    1256:	c3 1a       	sub	r12, r19
    1258:	d3 0a       	sbc	r13, r19
    125a:	4a 89       	ldd	r20, Y+18	; 0x12
    125c:	5b 89       	ldd	r21, Y+19	; 0x13
    125e:	c4 16       	cp	r12, r20
    1260:	d5 06       	cpc	r13, r21
    1262:	09 f0       	breq	.+2      	; 0x1266 <_ZN12Adafruit_GFX8drawCharEiihjjh+0x1a8>
    1264:	b5 cf       	rjmp	.-150    	; 0x11d0 <_ZN12Adafruit_GFX8drawCharEiihjjh+0x112>
    1266:	8a 81       	ldd	r24, Y+2	; 0x02
    1268:	9b 81       	ldd	r25, Y+3	; 0x03
    126a:	88 0d       	add	r24, r8
    126c:	99 1d       	adc	r25, r9
    126e:	9b 83       	std	Y+3, r25	; 0x03
    1270:	8a 83       	std	Y+2, r24	; 0x02
    1272:	9f ef       	ldi	r25, 0xFF	; 255
    1274:	49 1a       	sub	r4, r25
    1276:	59 0a       	sbc	r5, r25
    1278:	ae 85       	ldd	r26, Y+14	; 0x0e
    127a:	bf 85       	ldd	r27, Y+15	; 0x0f
    127c:	4a 16       	cp	r4, r26
    127e:	5b 06       	cpc	r5, r27
    1280:	09 f0       	breq	.+2      	; 0x1284 <_ZN12Adafruit_GFX8drawCharEiihjjh+0x1c6>
    1282:	9b cf       	rjmp	.-202    	; 0x11ba <_ZN12Adafruit_GFX8drawCharEiihjjh+0xfc>
    1284:	ee 81       	ldd	r30, Y+6	; 0x06
    1286:	ff 81       	ldd	r31, Y+7	; 0x07
    1288:	6e 16       	cp	r6, r30
    128a:	7f 06       	cpc	r7, r31
    128c:	09 f4       	brne	.+2      	; 0x1290 <_ZN12Adafruit_GFX8drawCharEiihjjh+0x1d2>
    128e:	f2 c0       	rjmp	.+484    	; 0x1474 <_ZN12Adafruit_GFX8drawCharEiihjjh+0x3b6>
    1290:	eb 8d       	ldd	r30, Y+27	; 0x1b
    1292:	fc 8d       	ldd	r31, Y+28	; 0x1c
    1294:	a0 81       	ld	r26, Z
    1296:	b1 81       	ldd	r27, Z+1	; 0x01
    1298:	f9 81       	ldd	r31, Y+1	; 0x01
    129a:	f1 30       	cpi	r31, 0x01	; 1
    129c:	79 f4       	brne	.+30     	; 0x12bc <_ZN12Adafruit_GFX8drawCharEiihjjh+0x1fe>
    129e:	b5 01       	movw	r22, r10
    12a0:	6b 5f       	subi	r22, 0xFB	; 251
    12a2:	7f 4f       	sbci	r23, 0xFF	; 255
    12a4:	50 96       	adiw	r26, 0x10	; 16
    12a6:	ed 91       	ld	r30, X+
    12a8:	fc 91       	ld	r31, X
    12aa:	51 97       	sbiw	r26, 0x11	; 17
    12ac:	83 01       	movw	r16, r6
    12ae:	28 e0       	ldi	r18, 0x08	; 8
    12b0:	30 e0       	ldi	r19, 0x00	; 0
    12b2:	a1 01       	movw	r20, r2
    12b4:	8b 8d       	ldd	r24, Y+27	; 0x1b
    12b6:	9c 8d       	ldd	r25, Y+28	; 0x1c
    12b8:	09 95       	icall
    12ba:	dc c0       	rjmp	.+440    	; 0x1474 <_ZN12Adafruit_GFX8drawCharEiihjjh+0x3b6>
    12bc:	6a 85       	ldd	r22, Y+10	; 0x0a
    12be:	7b 85       	ldd	r23, Y+11	; 0x0b
    12c0:	68 19       	sub	r22, r8
    12c2:	79 09       	sbc	r23, r9
    12c4:	1e 96       	adiw	r26, 0x0e	; 14
    12c6:	ed 91       	ld	r30, X+
    12c8:	fc 91       	ld	r31, X
    12ca:	1f 97       	sbiw	r26, 0x0f	; 15
    12cc:	73 01       	movw	r14, r6
    12ce:	0c 85       	ldd	r16, Y+12	; 0x0c
    12d0:	1d 85       	ldd	r17, Y+13	; 0x0d
    12d2:	94 01       	movw	r18, r8
    12d4:	a1 01       	movw	r20, r2
    12d6:	8b 8d       	ldd	r24, Y+27	; 0x1b
    12d8:	9c 8d       	ldd	r25, Y+28	; 0x1c
    12da:	09 95       	icall
    12dc:	cb c0       	rjmp	.+406    	; 0x1474 <_ZN12Adafruit_GFX8drawCharEiihjjh+0x3b6>
    12de:	fa 01       	movw	r30, r20
    12e0:	34 96       	adiw	r30, 0x04	; 4
    12e2:	94 91       	lpm	r25, Z
    12e4:	32 97       	sbiw	r30, 0x02	; 2
    12e6:	65 91       	lpm	r22, Z+
    12e8:	74 91       	lpm	r23, Z
    12ea:	29 1b       	sub	r18, r25
    12ec:	cb 01       	movw	r24, r22
    12ee:	b7 e0       	ldi	r27, 0x07	; 7
    12f0:	2b 9f       	mul	r18, r27
    12f2:	80 0d       	add	r24, r0
    12f4:	91 1d       	adc	r25, r1
    12f6:	11 24       	eor	r1, r1
    12f8:	fa 01       	movw	r30, r20
    12fa:	25 91       	lpm	r18, Z+
    12fc:	34 91       	lpm	r19, Z
    12fe:	3b 8b       	std	Y+19, r19	; 0x13
    1300:	2a 8b       	std	Y+18, r18	; 0x12
    1302:	fc 01       	movw	r30, r24
    1304:	45 91       	lpm	r20, Z+
    1306:	54 91       	lpm	r21, Z
    1308:	5b 83       	std	Y+3, r21	; 0x03
    130a:	4a 83       	std	Y+2, r20	; 0x02
    130c:	fc 01       	movw	r30, r24
    130e:	32 96       	adiw	r30, 0x02	; 2
    1310:	c4 90       	lpm	r12, Z
    1312:	31 96       	adiw	r30, 0x01	; 1
    1314:	54 91       	lpm	r21, Z
    1316:	5c 87       	std	Y+12, r21	; 0x0c
    1318:	32 96       	adiw	r30, 0x02	; 2
    131a:	14 91       	lpm	r17, Z
    131c:	31 96       	adiw	r30, 0x01	; 1
    131e:	d4 90       	lpm	r13, Z
    1320:	89 81       	ldd	r24, Y+1	; 0x01
    1322:	82 30       	cpi	r24, 0x02	; 2
    1324:	58 f0       	brcs	.+22     	; 0x133c <_ZN12Adafruit_GFX8drawCharEiihjjh+0x27e>
    1326:	61 2e       	mov	r6, r17
    1328:	01 2e       	mov	r0, r17
    132a:	00 0c       	add	r0, r0
    132c:	77 08       	sbc	r7, r7
    132e:	ad 2d       	mov	r26, r13
    1330:	0d 2c       	mov	r0, r13
    1332:	00 0c       	add	r0, r0
    1334:	bb 0b       	sbc	r27, r27
    1336:	b9 87       	std	Y+9, r27	; 0x09
    1338:	a8 87       	std	Y+8, r26	; 0x08
    133a:	04 c0       	rjmp	.+8      	; 0x1344 <_ZN12Adafruit_GFX8drawCharEiihjjh+0x286>
    133c:	19 86       	std	Y+9, r1	; 0x09
    133e:	18 86       	std	Y+8, r1	; 0x08
    1340:	61 2c       	mov	r6, r1
    1342:	71 2c       	mov	r7, r1
    1344:	ab 8d       	ldd	r26, Y+27	; 0x1b
    1346:	bc 8d       	ldd	r27, Y+28	; 0x1c
    1348:	ed 91       	ld	r30, X+
    134a:	fc 91       	ld	r31, X
    134c:	11 97       	sbiw	r26, 0x01	; 1
    134e:	02 84       	ldd	r0, Z+10	; 0x0a
    1350:	f3 85       	ldd	r31, Z+11	; 0x0b
    1352:	e0 2d       	mov	r30, r0
    1354:	cd 01       	movw	r24, r26
    1356:	09 95       	icall
    1358:	b9 81       	ldd	r27, Y+1	; 0x01
    135a:	8b 2e       	mov	r8, r27
    135c:	91 2c       	mov	r9, r1
    135e:	68 9c       	mul	r6, r8
    1360:	c0 01       	movw	r24, r0
    1362:	69 9c       	mul	r6, r9
    1364:	90 0d       	add	r25, r0
    1366:	78 9c       	mul	r7, r8
    1368:	90 0d       	add	r25, r0
    136a:	11 24       	eor	r1, r1
    136c:	fc 01       	movw	r30, r24
    136e:	ea 0d       	add	r30, r10
    1370:	fb 1d       	adc	r31, r11
    1372:	f9 8b       	std	Y+17, r31	; 0x11
    1374:	e8 8b       	std	Y+16, r30	; 0x10
    1376:	1c 82       	std	Y+4, r1	; 0x04
    1378:	71 2c       	mov	r7, r1
    137a:	61 2c       	mov	r6, r1
    137c:	e1 2f       	mov	r30, r17
    137e:	11 0f       	add	r17, r17
    1380:	ff 0b       	sbc	r31, r31
    1382:	95 01       	movw	r18, r10
    1384:	2e 0f       	add	r18, r30
    1386:	3f 1f       	adc	r19, r31
    1388:	3b 87       	std	Y+11, r19	; 0x0b
    138a:	2a 87       	std	Y+10, r18	; 0x0a
    138c:	ac 0c       	add	r10, r12
    138e:	b1 1c       	adc	r11, r1
    1390:	a5 01       	movw	r20, r10
    1392:	4e 0f       	add	r20, r30
    1394:	5f 1f       	adc	r21, r31
    1396:	5f 8b       	std	Y+23, r21	; 0x17
    1398:	4e 8b       	std	Y+22, r20	; 0x16
    139a:	c1 01       	movw	r24, r2
    139c:	8d 0d       	add	r24, r13
    139e:	91 1d       	adc	r25, r1
    13a0:	d7 fc       	sbrc	r13, 7
    13a2:	9a 95       	dec	r25
    13a4:	99 8f       	std	Y+25, r25	; 0x19
    13a6:	88 8f       	std	Y+24, r24	; 0x18
    13a8:	4c 85       	ldd	r20, Y+12	; 0x0c
    13aa:	64 16       	cp	r6, r20
    13ac:	08 f0       	brcs	.+2      	; 0x13b0 <_ZN12Adafruit_GFX8drawCharEiihjjh+0x2f2>
    13ae:	62 c0       	rjmp	.+196    	; 0x1474 <_ZN12Adafruit_GFX8drawCharEiihjjh+0x3b6>
    13b0:	86 2d       	mov	r24, r6
    13b2:	90 e0       	ldi	r25, 0x00	; 0
    13b4:	48 85       	ldd	r20, Y+8	; 0x08
    13b6:	59 85       	ldd	r21, Y+9	; 0x09
    13b8:	48 0f       	add	r20, r24
    13ba:	59 1f       	adc	r21, r25
    13bc:	48 9d       	mul	r20, r8
    13be:	90 01       	movw	r18, r0
    13c0:	49 9d       	mul	r20, r9
    13c2:	30 0d       	add	r19, r0
    13c4:	58 9d       	mul	r21, r8
    13c6:	30 0d       	add	r19, r0
    13c8:	11 24       	eor	r1, r1
    13ca:	d9 01       	movw	r26, r18
    13cc:	a2 0d       	add	r26, r2
    13ce:	b3 1d       	adc	r27, r3
    13d0:	bf 87       	std	Y+15, r27	; 0x0f
    13d2:	ae 87       	std	Y+14, r26	; 0x0e
    13d4:	aa 84       	ldd	r10, Y+10	; 0x0a
    13d6:	bb 84       	ldd	r11, Y+11	; 0x0b
    13d8:	48 88       	ldd	r4, Y+16	; 0x10
    13da:	59 88       	ldd	r5, Y+17	; 0x11
    13dc:	dc 80       	ldd	r13, Y+4	; 0x04
    13de:	ba 85       	ldd	r27, Y+10	; 0x0a
    13e0:	db 1a       	sub	r13, r27
    13e2:	e8 8d       	ldd	r30, Y+24	; 0x18
    13e4:	f9 8d       	ldd	r31, Y+25	; 0x19
    13e6:	e8 0f       	add	r30, r24
    13e8:	f9 1f       	adc	r31, r25
    13ea:	fd 8b       	std	Y+21, r31	; 0x15
    13ec:	ec 8b       	std	Y+20, r30	; 0x14
    13ee:	8d 2d       	mov	r24, r13
    13f0:	8a 0d       	add	r24, r10
    13f2:	2e 89       	ldd	r18, Y+22	; 0x16
    13f4:	3f 89       	ldd	r19, Y+23	; 0x17
    13f6:	a2 16       	cp	r10, r18
    13f8:	b3 06       	cpc	r11, r19
    13fa:	b9 f1       	breq	.+110    	; 0x146a <_ZN12Adafruit_GFX8drawCharEiihjjh+0x3ac>
    13fc:	87 70       	andi	r24, 0x07	; 7
    13fe:	61 f4       	brne	.+24     	; 0x1418 <_ZN12Adafruit_GFX8drawCharEiihjjh+0x35a>
    1400:	8a 81       	ldd	r24, Y+2	; 0x02
    1402:	9b 81       	ldd	r25, Y+3	; 0x03
    1404:	01 96       	adiw	r24, 0x01	; 1
    1406:	ea 89       	ldd	r30, Y+18	; 0x12
    1408:	fb 89       	ldd	r31, Y+19	; 0x13
    140a:	aa 81       	ldd	r26, Y+2	; 0x02
    140c:	bb 81       	ldd	r27, Y+3	; 0x03
    140e:	ea 0f       	add	r30, r26
    1410:	fb 1f       	adc	r31, r27
    1412:	74 90       	lpm	r7, Z
    1414:	9b 83       	std	Y+3, r25	; 0x03
    1416:	8a 83       	std	Y+2, r24	; 0x02
    1418:	77 fe       	sbrs	r7, 7
    141a:	20 c0       	rjmp	.+64     	; 0x145c <_ZN12Adafruit_GFX8drawCharEiihjjh+0x39e>
    141c:	ab 8d       	ldd	r26, Y+27	; 0x1b
    141e:	bc 8d       	ldd	r27, Y+28	; 0x1c
    1420:	ed 91       	ld	r30, X+
    1422:	fc 91       	ld	r31, X
    1424:	b9 81       	ldd	r27, Y+1	; 0x01
    1426:	b1 30       	cpi	r27, 0x01	; 1
    1428:	61 f4       	brne	.+24     	; 0x1442 <_ZN12Adafruit_GFX8drawCharEiihjjh+0x384>
    142a:	04 84       	ldd	r0, Z+12	; 0x0c
    142c:	f5 85       	ldd	r31, Z+13	; 0x0d
    142e:	e0 2d       	mov	r30, r0
    1430:	2e 81       	ldd	r18, Y+6	; 0x06
    1432:	3f 81       	ldd	r19, Y+7	; 0x07
    1434:	4c 89       	ldd	r20, Y+20	; 0x14
    1436:	5d 89       	ldd	r21, Y+21	; 0x15
    1438:	b5 01       	movw	r22, r10
    143a:	8b 8d       	ldd	r24, Y+27	; 0x1b
    143c:	9c 8d       	ldd	r25, Y+28	; 0x1c
    143e:	09 95       	icall
    1440:	0d c0       	rjmp	.+26     	; 0x145c <_ZN12Adafruit_GFX8drawCharEiihjjh+0x39e>
    1442:	06 84       	ldd	r0, Z+14	; 0x0e
    1444:	f7 85       	ldd	r31, Z+15	; 0x0f
    1446:	e0 2d       	mov	r30, r0
    1448:	ee 80       	ldd	r14, Y+6	; 0x06
    144a:	ff 80       	ldd	r15, Y+7	; 0x07
    144c:	84 01       	movw	r16, r8
    144e:	94 01       	movw	r18, r8
    1450:	4e 85       	ldd	r20, Y+14	; 0x0e
    1452:	5f 85       	ldd	r21, Y+15	; 0x0f
    1454:	b2 01       	movw	r22, r4
    1456:	8b 8d       	ldd	r24, Y+27	; 0x1b
    1458:	9c 8d       	ldd	r25, Y+28	; 0x1c
    145a:	09 95       	icall
    145c:	77 0c       	add	r7, r7
    145e:	48 0c       	add	r4, r8
    1460:	59 1c       	adc	r5, r9
    1462:	ef ef       	ldi	r30, 0xFF	; 255
    1464:	ae 1a       	sub	r10, r30
    1466:	be 0a       	sbc	r11, r30
    1468:	c2 cf       	rjmp	.-124    	; 0x13ee <_ZN12Adafruit_GFX8drawCharEiihjjh+0x330>
    146a:	3c 81       	ldd	r19, Y+4	; 0x04
    146c:	3c 0d       	add	r19, r12
    146e:	3c 83       	std	Y+4, r19	; 0x04
    1470:	63 94       	inc	r6
    1472:	9a cf       	rjmp	.-204    	; 0x13a8 <_ZN12Adafruit_GFX8drawCharEiihjjh+0x2ea>
    1474:	ab 8d       	ldd	r26, Y+27	; 0x1b
    1476:	bc 8d       	ldd	r27, Y+28	; 0x1c
    1478:	ed 91       	ld	r30, X+
    147a:	fc 91       	ld	r31, X
    147c:	11 97       	sbiw	r26, 0x01	; 1
    147e:	06 88       	ldd	r0, Z+22	; 0x16
    1480:	f7 89       	ldd	r31, Z+23	; 0x17
    1482:	e0 2d       	mov	r30, r0
    1484:	cd 01       	movw	r24, r26
    1486:	6c 96       	adiw	r28, 0x1c	; 28
    1488:	0f b6       	in	r0, 0x3f	; 63
    148a:	f8 94       	cli
    148c:	de bf       	out	0x3e, r29	; 62
    148e:	0f be       	out	0x3f, r0	; 63
    1490:	cd bf       	out	0x3d, r28	; 61
    1492:	df 91       	pop	r29
    1494:	cf 91       	pop	r28
    1496:	1f 91       	pop	r17
    1498:	0f 91       	pop	r16
    149a:	ff 90       	pop	r15
    149c:	ef 90       	pop	r14
    149e:	df 90       	pop	r13
    14a0:	cf 90       	pop	r12
    14a2:	bf 90       	pop	r11
    14a4:	af 90       	pop	r10
    14a6:	9f 90       	pop	r9
    14a8:	8f 90       	pop	r8
    14aa:	7f 90       	pop	r7
    14ac:	6f 90       	pop	r6
    14ae:	5f 90       	pop	r5
    14b0:	4f 90       	pop	r4
    14b2:	3f 90       	pop	r3
    14b4:	2f 90       	pop	r2
    14b6:	09 94       	ijmp
    14b8:	6c 96       	adiw	r28, 0x1c	; 28
    14ba:	0f b6       	in	r0, 0x3f	; 63
    14bc:	f8 94       	cli
    14be:	de bf       	out	0x3e, r29	; 62
    14c0:	0f be       	out	0x3f, r0	; 63
    14c2:	cd bf       	out	0x3d, r28	; 61
    14c4:	df 91       	pop	r29
    14c6:	cf 91       	pop	r28
    14c8:	1f 91       	pop	r17
    14ca:	0f 91       	pop	r16
    14cc:	ff 90       	pop	r15
    14ce:	ef 90       	pop	r14
    14d0:	df 90       	pop	r13
    14d2:	cf 90       	pop	r12
    14d4:	bf 90       	pop	r11
    14d6:	af 90       	pop	r10
    14d8:	9f 90       	pop	r9
    14da:	8f 90       	pop	r8
    14dc:	7f 90       	pop	r7
    14de:	6f 90       	pop	r6
    14e0:	5f 90       	pop	r5
    14e2:	4f 90       	pop	r4
    14e4:	3f 90       	pop	r3
    14e6:	2f 90       	pop	r2
    14e8:	08 95       	ret

000014ea <_ZN12Adafruit_GFX5writeEh>:
    14ea:	af 92       	push	r10
    14ec:	bf 92       	push	r11
    14ee:	cf 92       	push	r12
    14f0:	ef 92       	push	r14
    14f2:	ff 92       	push	r15
    14f4:	0f 93       	push	r16
    14f6:	1f 93       	push	r17
    14f8:	cf 93       	push	r28
    14fa:	df 93       	push	r29
    14fc:	ec 01       	movw	r28, r24
    14fe:	26 2f       	mov	r18, r22
    1500:	88 8d       	ldd	r24, Y+24	; 0x18
    1502:	99 8d       	ldd	r25, Y+25	; 0x19
    1504:	00 97       	sbiw	r24, 0x00	; 0
    1506:	09 f0       	breq	.+2      	; 0x150a <_ZN12Adafruit_GFX5writeEh+0x20>
    1508:	40 c0       	rjmp	.+128    	; 0x158a <_ZN12Adafruit_GFX5writeEh+0xa0>
    150a:	6a 30       	cpi	r22, 0x0A	; 10
    150c:	59 f4       	brne	.+22     	; 0x1524 <_ZN12Adafruit_GFX5writeEh+0x3a>
    150e:	1d 86       	std	Y+13, r1	; 0x0d
    1510:	1c 86       	std	Y+12, r1	; 0x0c
    1512:	2c 89       	ldd	r18, Y+20	; 0x14
    1514:	8e 85       	ldd	r24, Y+14	; 0x0e
    1516:	9f 85       	ldd	r25, Y+15	; 0x0f
    1518:	38 e0       	ldi	r19, 0x08	; 8
    151a:	23 9f       	mul	r18, r19
    151c:	80 0d       	add	r24, r0
    151e:	91 1d       	adc	r25, r1
    1520:	11 24       	eor	r1, r1
    1522:	41 c0       	rjmp	.+130    	; 0x15a6 <_ZN12Adafruit_GFX5writeEh+0xbc>
    1524:	6d 30       	cpi	r22, 0x0D	; 13
    1526:	09 f4       	brne	.+2      	; 0x152a <_ZN12Adafruit_GFX5writeEh+0x40>
    1528:	aa c0       	rjmp	.+340    	; 0x167e <_ZN12Adafruit_GFX5writeEh+0x194>
    152a:	8e 89       	ldd	r24, Y+22	; 0x16
    152c:	88 23       	and	r24, r24
    152e:	c1 f0       	breq	.+48     	; 0x1560 <_ZN12Adafruit_GFX5writeEh+0x76>
    1530:	3c 89       	ldd	r19, Y+20	; 0x14
    1532:	8c 85       	ldd	r24, Y+12	; 0x0c
    1534:	9d 85       	ldd	r25, Y+13	; 0x0d
    1536:	46 e0       	ldi	r20, 0x06	; 6
    1538:	34 9f       	mul	r19, r20
    153a:	80 0d       	add	r24, r0
    153c:	91 1d       	adc	r25, r1
    153e:	11 24       	eor	r1, r1
    1540:	48 85       	ldd	r20, Y+8	; 0x08
    1542:	59 85       	ldd	r21, Y+9	; 0x09
    1544:	48 17       	cp	r20, r24
    1546:	59 07       	cpc	r21, r25
    1548:	5c f4       	brge	.+22     	; 0x1560 <_ZN12Adafruit_GFX5writeEh+0x76>
    154a:	1d 86       	std	Y+13, r1	; 0x0d
    154c:	1c 86       	std	Y+12, r1	; 0x0c
    154e:	8e 85       	ldd	r24, Y+14	; 0x0e
    1550:	9f 85       	ldd	r25, Y+15	; 0x0f
    1552:	48 e0       	ldi	r20, 0x08	; 8
    1554:	34 9f       	mul	r19, r20
    1556:	80 0d       	add	r24, r0
    1558:	91 1d       	adc	r25, r1
    155a:	11 24       	eor	r1, r1
    155c:	9f 87       	std	Y+15, r25	; 0x0f
    155e:	8e 87       	std	Y+14, r24	; 0x0e
    1560:	ea 88       	ldd	r14, Y+18	; 0x12
    1562:	fb 88       	ldd	r15, Y+19	; 0x13
    1564:	08 89       	ldd	r16, Y+16	; 0x10
    1566:	19 89       	ldd	r17, Y+17	; 0x11
    1568:	4e 85       	ldd	r20, Y+14	; 0x0e
    156a:	5f 85       	ldd	r21, Y+15	; 0x0f
    156c:	6c 85       	ldd	r22, Y+12	; 0x0c
    156e:	7d 85       	ldd	r23, Y+13	; 0x0d
    1570:	cc 88       	ldd	r12, Y+20	; 0x14
    1572:	ce 01       	movw	r24, r28
    1574:	0e 94 5f 08 	call	0x10be	; 0x10be <_ZN12Adafruit_GFX8drawCharEiihjjh>
    1578:	2c 89       	ldd	r18, Y+20	; 0x14
    157a:	8c 85       	ldd	r24, Y+12	; 0x0c
    157c:	9d 85       	ldd	r25, Y+13	; 0x0d
    157e:	36 e0       	ldi	r19, 0x06	; 6
    1580:	23 9f       	mul	r18, r19
    1582:	80 0d       	add	r24, r0
    1584:	91 1d       	adc	r25, r1
    1586:	11 24       	eor	r1, r1
    1588:	42 c0       	rjmp	.+132    	; 0x160e <_ZN12Adafruit_GFX5writeEh+0x124>
    158a:	6a 30       	cpi	r22, 0x0A	; 10
    158c:	79 f4       	brne	.+30     	; 0x15ac <_ZN12Adafruit_GFX5writeEh+0xc2>
    158e:	1d 86       	std	Y+13, r1	; 0x0d
    1590:	1c 86       	std	Y+12, r1	; 0x0c
    1592:	2c 89       	ldd	r18, Y+20	; 0x14
    1594:	fc 01       	movw	r30, r24
    1596:	36 96       	adiw	r30, 0x06	; 6
    1598:	e4 91       	lpm	r30, Z
    159a:	8e 85       	ldd	r24, Y+14	; 0x0e
    159c:	9f 85       	ldd	r25, Y+15	; 0x0f
    159e:	2e 9f       	mul	r18, r30
    15a0:	80 0d       	add	r24, r0
    15a2:	91 1d       	adc	r25, r1
    15a4:	11 24       	eor	r1, r1
    15a6:	9f 87       	std	Y+15, r25	; 0x0f
    15a8:	8e 87       	std	Y+14, r24	; 0x0e
    15aa:	69 c0       	rjmp	.+210    	; 0x167e <_ZN12Adafruit_GFX5writeEh+0x194>
    15ac:	6d 30       	cpi	r22, 0x0D	; 13
    15ae:	09 f4       	brne	.+2      	; 0x15b2 <_ZN12Adafruit_GFX5writeEh+0xc8>
    15b0:	66 c0       	rjmp	.+204    	; 0x167e <_ZN12Adafruit_GFX5writeEh+0x194>
    15b2:	fc 01       	movw	r30, r24
    15b4:	34 96       	adiw	r30, 0x04	; 4
    15b6:	34 91       	lpm	r19, Z
    15b8:	63 17       	cp	r22, r19
    15ba:	08 f4       	brcc	.+2      	; 0x15be <_ZN12Adafruit_GFX5writeEh+0xd4>
    15bc:	60 c0       	rjmp	.+192    	; 0x167e <_ZN12Adafruit_GFX5writeEh+0x194>
    15be:	31 96       	adiw	r30, 0x01	; 1
    15c0:	e4 91       	lpm	r30, Z
    15c2:	e6 17       	cp	r30, r22
    15c4:	08 f4       	brcc	.+2      	; 0x15c8 <_ZN12Adafruit_GFX5writeEh+0xde>
    15c6:	5b c0       	rjmp	.+182    	; 0x167e <_ZN12Adafruit_GFX5writeEh+0x194>
    15c8:	fc 01       	movw	r30, r24
    15ca:	32 96       	adiw	r30, 0x02	; 2
    15cc:	a5 90       	lpm	r10, Z+
    15ce:	b4 90       	lpm	r11, Z
    15d0:	46 2f       	mov	r20, r22
    15d2:	50 e0       	ldi	r21, 0x00	; 0
    15d4:	43 1b       	sub	r20, r19
    15d6:	51 09       	sbc	r21, r1
    15d8:	37 e0       	ldi	r19, 0x07	; 7
    15da:	34 9f       	mul	r19, r20
    15dc:	b0 01       	movw	r22, r0
    15de:	35 9f       	mul	r19, r21
    15e0:	70 0d       	add	r23, r0
    15e2:	11 24       	eor	r1, r1
    15e4:	a6 0e       	add	r10, r22
    15e6:	b7 1e       	adc	r11, r23
    15e8:	f5 01       	movw	r30, r10
    15ea:	32 96       	adiw	r30, 0x02	; 2
    15ec:	34 91       	lpm	r19, Z
    15ee:	31 96       	adiw	r30, 0x01	; 1
    15f0:	e4 91       	lpm	r30, Z
    15f2:	33 23       	and	r19, r19
    15f4:	11 f0       	breq	.+4      	; 0x15fa <_ZN12Adafruit_GFX5writeEh+0x110>
    15f6:	e1 11       	cpse	r30, r1
    15f8:	0d c0       	rjmp	.+26     	; 0x1614 <_ZN12Adafruit_GFX5writeEh+0x12a>
    15fa:	f5 01       	movw	r30, r10
    15fc:	34 96       	adiw	r30, 0x04	; 4
    15fe:	e4 91       	lpm	r30, Z
    1600:	2c 89       	ldd	r18, Y+20	; 0x14
    1602:	8c 85       	ldd	r24, Y+12	; 0x0c
    1604:	9d 85       	ldd	r25, Y+13	; 0x0d
    1606:	e2 9f       	mul	r30, r18
    1608:	80 0d       	add	r24, r0
    160a:	91 1d       	adc	r25, r1
    160c:	11 24       	eor	r1, r1
    160e:	9d 87       	std	Y+13, r25	; 0x0d
    1610:	8c 87       	std	Y+12, r24	; 0x0c
    1612:	35 c0       	rjmp	.+106    	; 0x167e <_ZN12Adafruit_GFX5writeEh+0x194>
    1614:	f5 01       	movw	r30, r10
    1616:	35 96       	adiw	r30, 0x05	; 5
    1618:	44 91       	lpm	r20, Z
    161a:	5e 89       	ldd	r21, Y+22	; 0x16
    161c:	55 23       	and	r21, r21
    161e:	11 f1       	breq	.+68     	; 0x1664 <_ZN12Adafruit_GFX5writeEh+0x17a>
    1620:	6c 89       	ldd	r22, Y+20	; 0x14
    1622:	e3 2f       	mov	r30, r19
    1624:	f0 e0       	ldi	r31, 0x00	; 0
    1626:	e4 0f       	add	r30, r20
    1628:	f1 1d       	adc	r31, r1
    162a:	47 fd       	sbrc	r20, 7
    162c:	fa 95       	dec	r31
    162e:	6e 9f       	mul	r22, r30
    1630:	d0 01       	movw	r26, r0
    1632:	6f 9f       	mul	r22, r31
    1634:	b0 0d       	add	r27, r0
    1636:	11 24       	eor	r1, r1
    1638:	4c 85       	ldd	r20, Y+12	; 0x0c
    163a:	5d 85       	ldd	r21, Y+13	; 0x0d
    163c:	4a 0f       	add	r20, r26
    163e:	5b 1f       	adc	r21, r27
    1640:	e8 85       	ldd	r30, Y+8	; 0x08
    1642:	f9 85       	ldd	r31, Y+9	; 0x09
    1644:	e4 17       	cp	r30, r20
    1646:	f5 07       	cpc	r31, r21
    1648:	6c f4       	brge	.+26     	; 0x1664 <_ZN12Adafruit_GFX5writeEh+0x17a>
    164a:	1d 86       	std	Y+13, r1	; 0x0d
    164c:	1c 86       	std	Y+12, r1	; 0x0c
    164e:	fc 01       	movw	r30, r24
    1650:	36 96       	adiw	r30, 0x06	; 6
    1652:	e4 91       	lpm	r30, Z
    1654:	8e 85       	ldd	r24, Y+14	; 0x0e
    1656:	9f 85       	ldd	r25, Y+15	; 0x0f
    1658:	6e 9f       	mul	r22, r30
    165a:	80 0d       	add	r24, r0
    165c:	91 1d       	adc	r25, r1
    165e:	11 24       	eor	r1, r1
    1660:	9f 87       	std	Y+15, r25	; 0x0f
    1662:	8e 87       	std	Y+14, r24	; 0x0e
    1664:	ea 88       	ldd	r14, Y+18	; 0x12
    1666:	fb 88       	ldd	r15, Y+19	; 0x13
    1668:	08 89       	ldd	r16, Y+16	; 0x10
    166a:	19 89       	ldd	r17, Y+17	; 0x11
    166c:	4e 85       	ldd	r20, Y+14	; 0x0e
    166e:	5f 85       	ldd	r21, Y+15	; 0x0f
    1670:	6c 85       	ldd	r22, Y+12	; 0x0c
    1672:	7d 85       	ldd	r23, Y+13	; 0x0d
    1674:	cc 88       	ldd	r12, Y+20	; 0x14
    1676:	ce 01       	movw	r24, r28
    1678:	0e 94 5f 08 	call	0x10be	; 0x10be <_ZN12Adafruit_GFX8drawCharEiihjjh>
    167c:	be cf       	rjmp	.-132    	; 0x15fa <_ZN12Adafruit_GFX5writeEh+0x110>
    167e:	81 e0       	ldi	r24, 0x01	; 1
    1680:	90 e0       	ldi	r25, 0x00	; 0
    1682:	df 91       	pop	r29
    1684:	cf 91       	pop	r28
    1686:	1f 91       	pop	r17
    1688:	0f 91       	pop	r16
    168a:	ff 90       	pop	r15
    168c:	ef 90       	pop	r14
    168e:	cf 90       	pop	r12
    1690:	bf 90       	pop	r11
    1692:	af 90       	pop	r10
    1694:	08 95       	ret

00001696 <_ZN12Adafruit_GFX9setCursorEii>:
    1696:	fc 01       	movw	r30, r24
    1698:	75 87       	std	Z+13, r23	; 0x0d
    169a:	64 87       	std	Z+12, r22	; 0x0c
    169c:	57 87       	std	Z+15, r21	; 0x0f
    169e:	46 87       	std	Z+14, r20	; 0x0e
    16a0:	08 95       	ret

000016a2 <_ZN12Adafruit_GFX11setTextSizeEh>:
    16a2:	61 11       	cpse	r22, r1
    16a4:	01 c0       	rjmp	.+2      	; 0x16a8 <_ZN12Adafruit_GFX11setTextSizeEh+0x6>
    16a6:	61 e0       	ldi	r22, 0x01	; 1
    16a8:	fc 01       	movw	r30, r24
    16aa:	64 8b       	std	Z+20, r22	; 0x14
    16ac:	08 95       	ret

000016ae <_ZN12Adafruit_GFX12setTextColorEj>:
    16ae:	fc 01       	movw	r30, r24
    16b0:	73 8b       	std	Z+19, r23	; 0x13
    16b2:	62 8b       	std	Z+18, r22	; 0x12
    16b4:	71 8b       	std	Z+17, r23	; 0x11
    16b6:	60 8b       	std	Z+16, r22	; 0x10
    16b8:	08 95       	ret

000016ba <_ZNK12Adafruit_GFX11getRotationEv>:
    16ba:	fc 01       	movw	r30, r24
    16bc:	85 89       	ldd	r24, Z+21	; 0x15
    16be:	08 95       	ret

000016c0 <_ZNK12Adafruit_GFX5widthEv>:
    @returns    Width in pixels
*/
/**************************************************************************/
int16_t Adafruit_GFX::width(void) const {
    return _width;
}
    16c0:	fc 01       	movw	r30, r24
    16c2:	80 85       	ldd	r24, Z+8	; 0x08
    16c4:	91 85       	ldd	r25, Z+9	; 0x09
    16c6:	08 95       	ret

000016c8 <_ZNK12Adafruit_GFX6heightEv>:
    @returns    Height in pixels
*/
/**************************************************************************/
int16_t Adafruit_GFX::height(void) const {
    return _height;
}
    16c8:	fc 01       	movw	r30, r24
    16ca:	82 85       	ldd	r24, Z+10	; 0x0a
    16cc:	93 85       	ldd	r25, Z+11	; 0x0b
    16ce:	08 95       	ret

000016d0 <_ZN16Adafruit_SSD130613drawFastHLineEiiij>:
    }
  }
  // the range of contrast to too small to be really useful
  // it is useful to dim the display
  ssd1306_command(SSD1306_SETCONTRAST);
  ssd1306_command(contrast);
    16d0:	0f 93       	push	r16
    16d2:	1f 93       	push	r17
    16d4:	cf 93       	push	r28
    16d6:	df 93       	push	r29
    16d8:	dc 01       	movw	r26, r24
    16da:	fb 01       	movw	r30, r22
    16dc:	55 96       	adiw	r26, 0x15	; 21
    16de:	8c 91       	ld	r24, X
    16e0:	55 97       	sbiw	r26, 0x15	; 21
    16e2:	82 30       	cpi	r24, 0x02	; 2
    16e4:	89 f0       	breq	.+34     	; 0x1708 <_ZN16Adafruit_SSD130613drawFastHLineEiiij+0x38>
    16e6:	83 30       	cpi	r24, 0x03	; 3
    16e8:	21 f1       	breq	.+72     	; 0x1732 <_ZN16Adafruit_SSD130613drawFastHLineEiiij+0x62>
    16ea:	81 30       	cpi	r24, 0x01	; 1
    16ec:	09 f0       	breq	.+2      	; 0x16f0 <_ZN16Adafruit_SSD130613drawFastHLineEiiij+0x20>
    16ee:	e6 c0       	rjmp	.+460    	; 0x18bc <_ZN16Adafruit_SSD130613drawFastHLineEiiij+0x1ec>
    16f0:	14 96       	adiw	r26, 0x04	; 4
    16f2:	8d 91       	ld	r24, X+
    16f4:	9c 91       	ld	r25, X
    16f6:	15 97       	sbiw	r26, 0x05	; 5
    16f8:	bc 01       	movw	r22, r24
    16fa:	64 1b       	sub	r22, r20
    16fc:	75 0b       	sbc	r23, r21
    16fe:	ab 01       	movw	r20, r22
    1700:	41 50       	subi	r20, 0x01	; 1
    1702:	51 09       	sbc	r21, r1
    1704:	bf 01       	movw	r22, r30
    1706:	1d c0       	rjmp	.+58     	; 0x1742 <_ZN16Adafruit_SSD130613drawFastHLineEiiij+0x72>
    1708:	14 96       	adiw	r26, 0x04	; 4
    170a:	6d 91       	ld	r22, X+
    170c:	7c 91       	ld	r23, X
    170e:	15 97       	sbiw	r26, 0x05	; 5
    1710:	cb 01       	movw	r24, r22
    1712:	8e 1b       	sub	r24, r30
    1714:	9f 0b       	sbc	r25, r31
    1716:	fc 01       	movw	r30, r24
    1718:	16 96       	adiw	r26, 0x06	; 6
    171a:	8d 91       	ld	r24, X+
    171c:	9c 91       	ld	r25, X
    171e:	17 97       	sbiw	r26, 0x07	; 7
    1720:	bc 01       	movw	r22, r24
    1722:	64 1b       	sub	r22, r20
    1724:	75 0b       	sbc	r23, r21
    1726:	ab 01       	movw	r20, r22
    1728:	41 50       	subi	r20, 0x01	; 1
    172a:	51 09       	sbc	r21, r1
    172c:	e2 1b       	sub	r30, r18
    172e:	f3 0b       	sbc	r31, r19
    1730:	c5 c0       	rjmp	.+394    	; 0x18bc <_ZN16Adafruit_SSD130613drawFastHLineEiiij+0x1ec>
    1732:	16 96       	adiw	r26, 0x06	; 6
    1734:	6d 91       	ld	r22, X+
    1736:	7c 91       	ld	r23, X
    1738:	17 97       	sbiw	r26, 0x07	; 7
    173a:	6e 1b       	sub	r22, r30
    173c:	7f 0b       	sbc	r23, r31
    173e:	62 1b       	sub	r22, r18
    1740:	73 0b       	sbc	r23, r19
    1742:	57 fd       	sbrc	r21, 7
    1744:	1a c1       	rjmp	.+564    	; 0x197a <_ZN16Adafruit_SSD130613drawFastHLineEiiij+0x2aa>
    1746:	14 96       	adiw	r26, 0x04	; 4
    1748:	8d 91       	ld	r24, X+
    174a:	9c 91       	ld	r25, X
    174c:	15 97       	sbiw	r26, 0x05	; 5
    174e:	48 17       	cp	r20, r24
    1750:	59 07       	cpc	r21, r25
    1752:	0c f0       	brlt	.+2      	; 0x1756 <_ZN16Adafruit_SSD130613drawFastHLineEiiij+0x86>
    1754:	12 c1       	rjmp	.+548    	; 0x197a <_ZN16Adafruit_SSD130613drawFastHLineEiiij+0x2aa>
    1756:	77 ff       	sbrs	r23, 7
    1758:	04 c0       	rjmp	.+8      	; 0x1762 <_ZN16Adafruit_SSD130613drawFastHLineEiiij+0x92>
    175a:	26 0f       	add	r18, r22
    175c:	37 1f       	adc	r19, r23
    175e:	60 e0       	ldi	r22, 0x00	; 0
    1760:	70 e0       	ldi	r23, 0x00	; 0
    1762:	16 96       	adiw	r26, 0x06	; 6
    1764:	8d 91       	ld	r24, X+
    1766:	9c 91       	ld	r25, X
    1768:	17 97       	sbiw	r26, 0x07	; 7
    176a:	fb 01       	movw	r30, r22
    176c:	e2 0f       	add	r30, r18
    176e:	f3 1f       	adc	r31, r19
    1770:	8e 17       	cp	r24, r30
    1772:	9f 07       	cpc	r25, r31
    1774:	1c f4       	brge	.+6      	; 0x177c <_ZN16Adafruit_SSD130613drawFastHLineEiiij+0xac>
    1776:	9c 01       	movw	r18, r24
    1778:	26 1b       	sub	r18, r22
    177a:	37 0b       	sbc	r19, r23
    177c:	12 16       	cp	r1, r18
    177e:	13 06       	cpc	r1, r19
    1780:	0c f0       	brlt	.+2      	; 0x1784 <_ZN16Adafruit_SSD130613drawFastHLineEiiij+0xb4>
    1782:	fb c0       	rjmp	.+502    	; 0x197a <_ZN16Adafruit_SSD130613drawFastHLineEiiij+0x2aa>
    1784:	a2 2f       	mov	r26, r18
    1786:	86 2f       	mov	r24, r22
    1788:	86 95       	lsr	r24
    178a:	86 95       	lsr	r24
    178c:	86 95       	lsr	r24
    178e:	90 e8       	ldi	r25, 0x80	; 128
    1790:	89 9f       	mul	r24, r25
    1792:	40 0d       	add	r20, r0
    1794:	51 1d       	adc	r21, r1
    1796:	11 24       	eor	r1, r1
    1798:	fa 01       	movw	r30, r20
    179a:	ea 5e       	subi	r30, 0xEA	; 234
    179c:	fe 4f       	sbci	r31, 0xFE	; 254
    179e:	67 70       	andi	r22, 0x07	; 7
    17a0:	a9 f1       	breq	.+106    	; 0x180c <_ZN16Adafruit_SSD130613drawFastHLineEiiij+0x13c>
    17a2:	98 e0       	ldi	r25, 0x08	; 8
    17a4:	96 1b       	sub	r25, r22
    17a6:	49 2f       	mov	r20, r25
    17a8:	50 e0       	ldi	r21, 0x00	; 0
    17aa:	ea 01       	movw	r28, r20
    17ac:	c2 5f       	subi	r28, 0xF2	; 242
    17ae:	de 4f       	sbci	r29, 0xFE	; 254
    17b0:	88 81       	ld	r24, Y
    17b2:	29 17       	cp	r18, r25
    17b4:	90 f4       	brcc	.+36     	; 0x17da <_ZN16Adafruit_SSD130613drawFastHLineEiiij+0x10a>
    17b6:	42 1b       	sub	r20, r18
    17b8:	51 09       	sbc	r21, r1
    17ba:	2f ef       	ldi	r18, 0xFF	; 255
    17bc:	30 e0       	ldi	r19, 0x00	; 0
    17be:	02 c0       	rjmp	.+4      	; 0x17c4 <_ZN16Adafruit_SSD130613drawFastHLineEiiij+0xf4>
    17c0:	35 95       	asr	r19
    17c2:	27 95       	ror	r18
    17c4:	4a 95       	dec	r20
    17c6:	e2 f7       	brpl	.-8      	; 0x17c0 <_ZN16Adafruit_SSD130613drawFastHLineEiiij+0xf0>
    17c8:	82 23       	and	r24, r18
    17ca:	01 30       	cpi	r16, 0x01	; 1
    17cc:	11 05       	cpc	r17, r1
    17ce:	41 f0       	breq	.+16     	; 0x17e0 <_ZN16Adafruit_SSD130613drawFastHLineEiiij+0x110>
    17d0:	68 f0       	brcs	.+26     	; 0x17ec <_ZN16Adafruit_SSD130613drawFastHLineEiiij+0x11c>
    17d2:	02 30       	cpi	r16, 0x02	; 2
    17d4:	11 05       	cpc	r17, r1
    17d6:	89 f0       	breq	.+34     	; 0x17fa <_ZN16Adafruit_SSD130613drawFastHLineEiiij+0x12a>
    17d8:	d0 c0       	rjmp	.+416    	; 0x197a <_ZN16Adafruit_SSD130613drawFastHLineEiiij+0x2aa>
    17da:	01 30       	cpi	r16, 0x01	; 1
    17dc:	11 05       	cpc	r17, r1
    17de:	19 f4       	brne	.+6      	; 0x17e6 <_ZN16Adafruit_SSD130613drawFastHLineEiiij+0x116>
    17e0:	20 81       	ld	r18, Z
    17e2:	82 2b       	or	r24, r18
    17e4:	0c c0       	rjmp	.+24     	; 0x17fe <_ZN16Adafruit_SSD130613drawFastHLineEiiij+0x12e>
    17e6:	01 30       	cpi	r16, 0x01	; 1
    17e8:	11 05       	cpc	r17, r1
    17ea:	20 f4       	brcc	.+8      	; 0x17f4 <_ZN16Adafruit_SSD130613drawFastHLineEiiij+0x124>
    17ec:	80 95       	com	r24
    17ee:	20 81       	ld	r18, Z
    17f0:	82 23       	and	r24, r18
    17f2:	05 c0       	rjmp	.+10     	; 0x17fe <_ZN16Adafruit_SSD130613drawFastHLineEiiij+0x12e>
    17f4:	02 30       	cpi	r16, 0x02	; 2
    17f6:	11 05       	cpc	r17, r1
    17f8:	31 f4       	brne	.+12     	; 0x1806 <_ZN16Adafruit_SSD130613drawFastHLineEiiij+0x136>
    17fa:	20 81       	ld	r18, Z
    17fc:	82 27       	eor	r24, r18
    17fe:	80 83       	st	Z, r24
    1800:	a9 17       	cp	r26, r25
    1802:	08 f4       	brcc	.+2      	; 0x1806 <_ZN16Adafruit_SSD130613drawFastHLineEiiij+0x136>
    1804:	ba c0       	rjmp	.+372    	; 0x197a <_ZN16Adafruit_SSD130613drawFastHLineEiiij+0x2aa>
    1806:	a9 1b       	sub	r26, r25
    1808:	e0 58       	subi	r30, 0x80	; 128
    180a:	ff 4f       	sbci	r31, 0xFF	; 255
    180c:	a8 30       	cpi	r26, 0x08	; 8
    180e:	48 f1       	brcs	.+82     	; 0x1862 <_ZN16Adafruit_SSD130613drawFastHLineEiiij+0x192>
    1810:	02 30       	cpi	r16, 0x02	; 2
    1812:	11 05       	cpc	r17, r1
    1814:	59 f4       	brne	.+22     	; 0x182c <_ZN16Adafruit_SSD130613drawFastHLineEiiij+0x15c>
    1816:	ef 01       	movw	r28, r30
    1818:	8a 2f       	mov	r24, r26
    181a:	98 81       	ld	r25, Y
    181c:	90 95       	com	r25
    181e:	98 83       	st	Y, r25
    1820:	c0 58       	subi	r28, 0x80	; 128
    1822:	df 4f       	sbci	r29, 0xFF	; 255
    1824:	88 50       	subi	r24, 0x08	; 8
    1826:	88 30       	cpi	r24, 0x08	; 8
    1828:	c0 f7       	brcc	.-16     	; 0x181a <_ZN16Adafruit_SSD130613drawFastHLineEiiij+0x14a>
    182a:	32 c0       	rjmp	.+100    	; 0x1890 <_ZN16Adafruit_SSD130613drawFastHLineEiiij+0x1c0>
    182c:	81 e0       	ldi	r24, 0x01	; 1
    182e:	01 30       	cpi	r16, 0x01	; 1
    1830:	11 05       	cpc	r17, r1
    1832:	09 f0       	breq	.+2      	; 0x1836 <_ZN16Adafruit_SSD130613drawFastHLineEiiij+0x166>
    1834:	80 e0       	ldi	r24, 0x00	; 0
    1836:	81 95       	neg	r24
    1838:	ef 01       	movw	r28, r30
    183a:	9a 2f       	mov	r25, r26
    183c:	88 83       	st	Y, r24
    183e:	c0 58       	subi	r28, 0x80	; 128
    1840:	df 4f       	sbci	r29, 0xFF	; 255
    1842:	98 50       	subi	r25, 0x08	; 8
    1844:	98 30       	cpi	r25, 0x08	; 8
    1846:	d0 f7       	brcc	.-12     	; 0x183c <_ZN16Adafruit_SSD130613drawFastHLineEiiij+0x16c>
    1848:	88 ef       	ldi	r24, 0xF8	; 248
    184a:	8a 0f       	add	r24, r26
    184c:	86 95       	lsr	r24
    184e:	86 95       	lsr	r24
    1850:	86 95       	lsr	r24
    1852:	60 e8       	ldi	r22, 0x80	; 128
    1854:	86 9f       	mul	r24, r22
    1856:	e0 0d       	add	r30, r0
    1858:	f1 1d       	adc	r31, r1
    185a:	11 24       	eor	r1, r1
    185c:	e0 58       	subi	r30, 0x80	; 128
    185e:	ff 4f       	sbci	r31, 0xFF	; 255
    1860:	a7 70       	andi	r26, 0x07	; 7
    1862:	aa 23       	and	r26, r26
    1864:	09 f4       	brne	.+2      	; 0x1868 <_ZN16Adafruit_SSD130613drawFastHLineEiiij+0x198>
    1866:	89 c0       	rjmp	.+274    	; 0x197a <_ZN16Adafruit_SSD130613drawFastHLineEiiij+0x2aa>
    1868:	b0 e0       	ldi	r27, 0x00	; 0
    186a:	aa 5f       	subi	r26, 0xFA	; 250
    186c:	be 4f       	sbci	r27, 0xFE	; 254
    186e:	8c 91       	ld	r24, X
    1870:	01 30       	cpi	r16, 0x01	; 1
    1872:	11 05       	cpc	r17, r1
    1874:	29 f0       	breq	.+10     	; 0x1880 <_ZN16Adafruit_SSD130613drawFastHLineEiiij+0x1b0>
    1876:	38 f0       	brcs	.+14     	; 0x1886 <_ZN16Adafruit_SSD130613drawFastHLineEiiij+0x1b6>
    1878:	02 30       	cpi	r16, 0x02	; 2
    187a:	11 05       	cpc	r17, r1
    187c:	e1 f0       	breq	.+56     	; 0x18b6 <_ZN16Adafruit_SSD130613drawFastHLineEiiij+0x1e6>
    187e:	7d c0       	rjmp	.+250    	; 0x197a <_ZN16Adafruit_SSD130613drawFastHLineEiiij+0x2aa>
    1880:	90 81       	ld	r25, Z
    1882:	89 2b       	or	r24, r25
    1884:	03 c0       	rjmp	.+6      	; 0x188c <_ZN16Adafruit_SSD130613drawFastHLineEiiij+0x1bc>
    1886:	80 95       	com	r24
    1888:	90 81       	ld	r25, Z
    188a:	89 23       	and	r24, r25
    188c:	80 83       	st	Z, r24
    188e:	75 c0       	rjmp	.+234    	; 0x197a <_ZN16Adafruit_SSD130613drawFastHLineEiiij+0x2aa>
    1890:	88 ef       	ldi	r24, 0xF8	; 248
    1892:	8a 0f       	add	r24, r26
    1894:	86 95       	lsr	r24
    1896:	86 95       	lsr	r24
    1898:	86 95       	lsr	r24
    189a:	70 e8       	ldi	r23, 0x80	; 128
    189c:	87 9f       	mul	r24, r23
    189e:	e0 0d       	add	r30, r0
    18a0:	f1 1d       	adc	r31, r1
    18a2:	11 24       	eor	r1, r1
    18a4:	e0 58       	subi	r30, 0x80	; 128
    18a6:	ff 4f       	sbci	r31, 0xFF	; 255
    18a8:	a7 70       	andi	r26, 0x07	; 7
    18aa:	09 f4       	brne	.+2      	; 0x18ae <_ZN16Adafruit_SSD130613drawFastHLineEiiij+0x1de>
    18ac:	66 c0       	rjmp	.+204    	; 0x197a <_ZN16Adafruit_SSD130613drawFastHLineEiiij+0x2aa>
    18ae:	b0 e0       	ldi	r27, 0x00	; 0
    18b0:	aa 5f       	subi	r26, 0xFA	; 250
    18b2:	be 4f       	sbci	r27, 0xFE	; 254
    18b4:	8c 91       	ld	r24, X
    18b6:	90 81       	ld	r25, Z
    18b8:	89 27       	eor	r24, r25
    18ba:	e8 cf       	rjmp	.-48     	; 0x188c <_ZN16Adafruit_SSD130613drawFastHLineEiiij+0x1bc>
    18bc:	57 fd       	sbrc	r21, 7
    18be:	5d c0       	rjmp	.+186    	; 0x197a <_ZN16Adafruit_SSD130613drawFastHLineEiiij+0x2aa>
    18c0:	16 96       	adiw	r26, 0x06	; 6
    18c2:	8d 91       	ld	r24, X+
    18c4:	9c 91       	ld	r25, X
    18c6:	17 97       	sbiw	r26, 0x07	; 7
    18c8:	48 17       	cp	r20, r24
    18ca:	59 07       	cpc	r21, r25
    18cc:	0c f0       	brlt	.+2      	; 0x18d0 <_ZN16Adafruit_SSD130613drawFastHLineEiiij+0x200>
    18ce:	55 c0       	rjmp	.+170    	; 0x197a <_ZN16Adafruit_SSD130613drawFastHLineEiiij+0x2aa>
    18d0:	f7 ff       	sbrs	r31, 7
    18d2:	04 c0       	rjmp	.+8      	; 0x18dc <_ZN16Adafruit_SSD130613drawFastHLineEiiij+0x20c>
    18d4:	2e 0f       	add	r18, r30
    18d6:	3f 1f       	adc	r19, r31
    18d8:	e0 e0       	ldi	r30, 0x00	; 0
    18da:	f0 e0       	ldi	r31, 0x00	; 0
    18dc:	14 96       	adiw	r26, 0x04	; 4
    18de:	8d 91       	ld	r24, X+
    18e0:	9c 91       	ld	r25, X
    18e2:	15 97       	sbiw	r26, 0x05	; 5
    18e4:	bf 01       	movw	r22, r30
    18e6:	62 0f       	add	r22, r18
    18e8:	73 1f       	adc	r23, r19
    18ea:	86 17       	cp	r24, r22
    18ec:	97 07       	cpc	r25, r23
    18ee:	1c f4       	brge	.+6      	; 0x18f6 <_ZN16Adafruit_SSD130613drawFastHLineEiiij+0x226>
    18f0:	9c 01       	movw	r18, r24
    18f2:	2e 1b       	sub	r18, r30
    18f4:	3f 0b       	sbc	r19, r31
    18f6:	12 16       	cp	r1, r18
    18f8:	13 06       	cpc	r1, r19
    18fa:	0c f0       	brlt	.+2      	; 0x18fe <_ZN16Adafruit_SSD130613drawFastHLineEiiij+0x22e>
    18fc:	3e c0       	rjmp	.+124    	; 0x197a <_ZN16Adafruit_SSD130613drawFastHLineEiiij+0x2aa>
    18fe:	ca 01       	movw	r24, r20
    1900:	57 fd       	sbrc	r21, 7
    1902:	07 96       	adiw	r24, 0x07	; 7
    1904:	63 e0       	ldi	r22, 0x03	; 3
    1906:	95 95       	asr	r25
    1908:	87 95       	ror	r24
    190a:	6a 95       	dec	r22
    190c:	e1 f7       	brne	.-8      	; 0x1906 <_ZN16Adafruit_SSD130613drawFastHLineEiiij+0x236>
    190e:	96 95       	lsr	r25
    1910:	98 2f       	mov	r25, r24
    1912:	88 27       	eor	r24, r24
    1914:	97 95       	ror	r25
    1916:	87 95       	ror	r24
    1918:	e8 0f       	add	r30, r24
    191a:	f9 1f       	adc	r31, r25
    191c:	ea 5e       	subi	r30, 0xEA	; 234
    191e:	fe 4f       	sbci	r31, 0xFE	; 254
    1920:	47 70       	andi	r20, 0x07	; 7
    1922:	55 27       	eor	r21, r21
    1924:	81 e0       	ldi	r24, 0x01	; 1
    1926:	90 e0       	ldi	r25, 0x00	; 0
    1928:	01 c0       	rjmp	.+2      	; 0x192c <_ZN16Adafruit_SSD130613drawFastHLineEiiij+0x25c>
    192a:	88 0f       	add	r24, r24
    192c:	4a 95       	dec	r20
    192e:	ea f7       	brpl	.-6      	; 0x192a <_ZN16Adafruit_SSD130613drawFastHLineEiiij+0x25a>
    1930:	48 2f       	mov	r20, r24
    1932:	01 30       	cpi	r16, 0x01	; 1
    1934:	11 05       	cpc	r17, r1
    1936:	39 f0       	breq	.+14     	; 0x1946 <_ZN16Adafruit_SSD130613drawFastHLineEiiij+0x276>
    1938:	78 f0       	brcs	.+30     	; 0x1958 <_ZN16Adafruit_SSD130613drawFastHLineEiiij+0x288>
    193a:	02 30       	cpi	r16, 0x02	; 2
    193c:	11 05       	cpc	r17, r1
    193e:	e9 f4       	brne	.+58     	; 0x197a <_ZN16Adafruit_SSD130613drawFastHLineEiiij+0x2aa>
    1940:	2e 0f       	add	r18, r30
    1942:	3f 1f       	adc	r19, r31
    1944:	13 c0       	rjmp	.+38     	; 0x196c <_ZN16Adafruit_SSD130613drawFastHLineEiiij+0x29c>
    1946:	2e 0f       	add	r18, r30
    1948:	3f 1f       	adc	r19, r31
    194a:	e2 17       	cp	r30, r18
    194c:	f3 07       	cpc	r31, r19
    194e:	a9 f0       	breq	.+42     	; 0x197a <_ZN16Adafruit_SSD130613drawFastHLineEiiij+0x2aa>
    1950:	80 81       	ld	r24, Z
    1952:	84 2b       	or	r24, r20
    1954:	81 93       	st	Z+, r24
    1956:	f9 cf       	rjmp	.-14     	; 0x194a <_ZN16Adafruit_SSD130613drawFastHLineEiiij+0x27a>
    1958:	80 95       	com	r24
    195a:	2e 0f       	add	r18, r30
    195c:	3f 1f       	adc	r19, r31
    195e:	e2 17       	cp	r30, r18
    1960:	f3 07       	cpc	r31, r19
    1962:	59 f0       	breq	.+22     	; 0x197a <_ZN16Adafruit_SSD130613drawFastHLineEiiij+0x2aa>
    1964:	90 81       	ld	r25, Z
    1966:	98 23       	and	r25, r24
    1968:	91 93       	st	Z+, r25
    196a:	f9 cf       	rjmp	.-14     	; 0x195e <_ZN16Adafruit_SSD130613drawFastHLineEiiij+0x28e>
    196c:	e2 17       	cp	r30, r18
    196e:	f3 07       	cpc	r31, r19
    1970:	21 f0       	breq	.+8      	; 0x197a <_ZN16Adafruit_SSD130613drawFastHLineEiiij+0x2aa>
    1972:	80 81       	ld	r24, Z
    1974:	84 27       	eor	r24, r20
    1976:	81 93       	st	Z+, r24
    1978:	f9 cf       	rjmp	.-14     	; 0x196c <_ZN16Adafruit_SSD130613drawFastHLineEiiij+0x29c>
    197a:	df 91       	pop	r29
    197c:	cf 91       	pop	r28
    197e:	1f 91       	pop	r17
    1980:	0f 91       	pop	r16
    1982:	08 95       	ret

00001984 <_ZN16Adafruit_SSD130613drawFastVLineEiiij>:
    1984:	0f 93       	push	r16
    1986:	1f 93       	push	r17
    1988:	cf 93       	push	r28
    198a:	df 93       	push	r29
    198c:	dc 01       	movw	r26, r24
    198e:	55 96       	adiw	r26, 0x15	; 21
    1990:	8c 91       	ld	r24, X
    1992:	55 97       	sbiw	r26, 0x15	; 21
    1994:	82 30       	cpi	r24, 0x02	; 2
    1996:	71 f0       	breq	.+28     	; 0x19b4 <_ZN16Adafruit_SSD130613drawFastVLineEiiij+0x30>
    1998:	83 30       	cpi	r24, 0x03	; 3
    199a:	09 f1       	breq	.+66     	; 0x19de <_ZN16Adafruit_SSD130613drawFastVLineEiiij+0x5a>
    199c:	81 30       	cpi	r24, 0x01	; 1
    199e:	09 f0       	breq	.+2      	; 0x19a2 <_ZN16Adafruit_SSD130613drawFastVLineEiiij+0x1e>
    19a0:	8c c0       	rjmp	.+280    	; 0x1aba <_ZN16Adafruit_SSD130613drawFastVLineEiiij+0x136>
    19a2:	14 96       	adiw	r26, 0x04	; 4
    19a4:	ed 91       	ld	r30, X+
    19a6:	fc 91       	ld	r31, X
    19a8:	15 97       	sbiw	r26, 0x05	; 5
    19aa:	e4 1b       	sub	r30, r20
    19ac:	f5 0b       	sbc	r31, r21
    19ae:	e2 1b       	sub	r30, r18
    19b0:	f3 0b       	sbc	r31, r19
    19b2:	20 c0       	rjmp	.+64     	; 0x19f4 <_ZN16Adafruit_SSD130613drawFastVLineEiiij+0x70>
    19b4:	14 96       	adiw	r26, 0x04	; 4
    19b6:	ed 91       	ld	r30, X+
    19b8:	fc 91       	ld	r31, X
    19ba:	15 97       	sbiw	r26, 0x05	; 5
    19bc:	cf 01       	movw	r24, r30
    19be:	86 1b       	sub	r24, r22
    19c0:	97 0b       	sbc	r25, r23
    19c2:	bc 01       	movw	r22, r24
    19c4:	61 50       	subi	r22, 0x01	; 1
    19c6:	71 09       	sbc	r23, r1
    19c8:	16 96       	adiw	r26, 0x06	; 6
    19ca:	ed 91       	ld	r30, X+
    19cc:	fc 91       	ld	r31, X
    19ce:	17 97       	sbiw	r26, 0x07	; 7
    19d0:	cf 01       	movw	r24, r30
    19d2:	84 1b       	sub	r24, r20
    19d4:	95 0b       	sbc	r25, r21
    19d6:	ac 01       	movw	r20, r24
    19d8:	42 1b       	sub	r20, r18
    19da:	53 0b       	sbc	r21, r19
    19dc:	6e c0       	rjmp	.+220    	; 0x1aba <_ZN16Adafruit_SSD130613drawFastVLineEiiij+0x136>
    19de:	16 96       	adiw	r26, 0x06	; 6
    19e0:	ed 91       	ld	r30, X+
    19e2:	fc 91       	ld	r31, X
    19e4:	17 97       	sbiw	r26, 0x07	; 7
    19e6:	cf 01       	movw	r24, r30
    19e8:	86 1b       	sub	r24, r22
    19ea:	97 0b       	sbc	r25, r23
    19ec:	bc 01       	movw	r22, r24
    19ee:	61 50       	subi	r22, 0x01	; 1
    19f0:	71 09       	sbc	r23, r1
    19f2:	fa 01       	movw	r30, r20
    19f4:	77 fd       	sbrc	r23, 7
    19f6:	1b c1       	rjmp	.+566    	; 0x1c2e <_ZN16Adafruit_SSD130613drawFastVLineEiiij+0x2aa>
    19f8:	16 96       	adiw	r26, 0x06	; 6
    19fa:	8d 91       	ld	r24, X+
    19fc:	9c 91       	ld	r25, X
    19fe:	17 97       	sbiw	r26, 0x07	; 7
    1a00:	68 17       	cp	r22, r24
    1a02:	79 07       	cpc	r23, r25
    1a04:	0c f0       	brlt	.+2      	; 0x1a08 <_ZN16Adafruit_SSD130613drawFastVLineEiiij+0x84>
    1a06:	13 c1       	rjmp	.+550    	; 0x1c2e <_ZN16Adafruit_SSD130613drawFastVLineEiiij+0x2aa>
    1a08:	f7 ff       	sbrs	r31, 7
    1a0a:	04 c0       	rjmp	.+8      	; 0x1a14 <_ZN16Adafruit_SSD130613drawFastVLineEiiij+0x90>
    1a0c:	2e 0f       	add	r18, r30
    1a0e:	3f 1f       	adc	r19, r31
    1a10:	e0 e0       	ldi	r30, 0x00	; 0
    1a12:	f0 e0       	ldi	r31, 0x00	; 0
    1a14:	14 96       	adiw	r26, 0x04	; 4
    1a16:	8d 91       	ld	r24, X+
    1a18:	9c 91       	ld	r25, X
    1a1a:	15 97       	sbiw	r26, 0x05	; 5
    1a1c:	af 01       	movw	r20, r30
    1a1e:	42 0f       	add	r20, r18
    1a20:	53 1f       	adc	r21, r19
    1a22:	84 17       	cp	r24, r20
    1a24:	95 07       	cpc	r25, r21
    1a26:	1c f4       	brge	.+6      	; 0x1a2e <_ZN16Adafruit_SSD130613drawFastVLineEiiij+0xaa>
    1a28:	9c 01       	movw	r18, r24
    1a2a:	2e 1b       	sub	r18, r30
    1a2c:	3f 0b       	sbc	r19, r31
    1a2e:	12 16       	cp	r1, r18
    1a30:	13 06       	cpc	r1, r19
    1a32:	0c f0       	brlt	.+2      	; 0x1a36 <_ZN16Adafruit_SSD130613drawFastVLineEiiij+0xb2>
    1a34:	fc c0       	rjmp	.+504    	; 0x1c2e <_ZN16Adafruit_SSD130613drawFastVLineEiiij+0x2aa>
    1a36:	cb 01       	movw	r24, r22
    1a38:	77 fd       	sbrc	r23, 7
    1a3a:	07 96       	adiw	r24, 0x07	; 7
    1a3c:	43 e0       	ldi	r20, 0x03	; 3
    1a3e:	95 95       	asr	r25
    1a40:	87 95       	ror	r24
    1a42:	4a 95       	dec	r20
    1a44:	e1 f7       	brne	.-8      	; 0x1a3e <_ZN16Adafruit_SSD130613drawFastVLineEiiij+0xba>
    1a46:	96 95       	lsr	r25
    1a48:	98 2f       	mov	r25, r24
    1a4a:	88 27       	eor	r24, r24
    1a4c:	97 95       	ror	r25
    1a4e:	87 95       	ror	r24
    1a50:	e8 0f       	add	r30, r24
    1a52:	f9 1f       	adc	r31, r25
    1a54:	ea 5e       	subi	r30, 0xEA	; 234
    1a56:	fe 4f       	sbci	r31, 0xFE	; 254
    1a58:	67 70       	andi	r22, 0x07	; 7
    1a5a:	77 27       	eor	r23, r23
    1a5c:	81 e0       	ldi	r24, 0x01	; 1
    1a5e:	90 e0       	ldi	r25, 0x00	; 0
    1a60:	01 c0       	rjmp	.+2      	; 0x1a64 <_ZN16Adafruit_SSD130613drawFastVLineEiiij+0xe0>
    1a62:	88 0f       	add	r24, r24
    1a64:	6a 95       	dec	r22
    1a66:	ea f7       	brpl	.-6      	; 0x1a62 <_ZN16Adafruit_SSD130613drawFastVLineEiiij+0xde>
    1a68:	48 2f       	mov	r20, r24
    1a6a:	01 30       	cpi	r16, 0x01	; 1
    1a6c:	11 05       	cpc	r17, r1
    1a6e:	41 f0       	breq	.+16     	; 0x1a80 <_ZN16Adafruit_SSD130613drawFastVLineEiiij+0xfc>
    1a70:	88 f0       	brcs	.+34     	; 0x1a94 <_ZN16Adafruit_SSD130613drawFastVLineEiiij+0x110>
    1a72:	02 30       	cpi	r16, 0x02	; 2
    1a74:	11 05       	cpc	r17, r1
    1a76:	09 f0       	breq	.+2      	; 0x1a7a <_ZN16Adafruit_SSD130613drawFastVLineEiiij+0xf6>
    1a78:	da c0       	rjmp	.+436    	; 0x1c2e <_ZN16Adafruit_SSD130613drawFastVLineEiiij+0x2aa>
    1a7a:	2e 0f       	add	r18, r30
    1a7c:	3f 1f       	adc	r19, r31
    1a7e:	15 c0       	rjmp	.+42     	; 0x1aaa <_ZN16Adafruit_SSD130613drawFastVLineEiiij+0x126>
    1a80:	2e 0f       	add	r18, r30
    1a82:	3f 1f       	adc	r19, r31
    1a84:	e2 17       	cp	r30, r18
    1a86:	f3 07       	cpc	r31, r19
    1a88:	09 f4       	brne	.+2      	; 0x1a8c <_ZN16Adafruit_SSD130613drawFastVLineEiiij+0x108>
    1a8a:	d1 c0       	rjmp	.+418    	; 0x1c2e <_ZN16Adafruit_SSD130613drawFastVLineEiiij+0x2aa>
    1a8c:	80 81       	ld	r24, Z
    1a8e:	84 2b       	or	r24, r20
    1a90:	81 93       	st	Z+, r24
    1a92:	f8 cf       	rjmp	.-16     	; 0x1a84 <_ZN16Adafruit_SSD130613drawFastVLineEiiij+0x100>
    1a94:	80 95       	com	r24
    1a96:	2e 0f       	add	r18, r30
    1a98:	3f 1f       	adc	r19, r31
    1a9a:	e2 17       	cp	r30, r18
    1a9c:	f3 07       	cpc	r31, r19
    1a9e:	09 f4       	brne	.+2      	; 0x1aa2 <_ZN16Adafruit_SSD130613drawFastVLineEiiij+0x11e>
    1aa0:	c6 c0       	rjmp	.+396    	; 0x1c2e <_ZN16Adafruit_SSD130613drawFastVLineEiiij+0x2aa>
    1aa2:	90 81       	ld	r25, Z
    1aa4:	98 23       	and	r25, r24
    1aa6:	91 93       	st	Z+, r25
    1aa8:	f8 cf       	rjmp	.-16     	; 0x1a9a <_ZN16Adafruit_SSD130613drawFastVLineEiiij+0x116>
    1aaa:	e2 17       	cp	r30, r18
    1aac:	f3 07       	cpc	r31, r19
    1aae:	09 f4       	brne	.+2      	; 0x1ab2 <_ZN16Adafruit_SSD130613drawFastVLineEiiij+0x12e>
    1ab0:	be c0       	rjmp	.+380    	; 0x1c2e <_ZN16Adafruit_SSD130613drawFastVLineEiiij+0x2aa>
    1ab2:	80 81       	ld	r24, Z
    1ab4:	84 27       	eor	r24, r20
    1ab6:	81 93       	st	Z+, r24
    1ab8:	f8 cf       	rjmp	.-16     	; 0x1aaa <_ZN16Adafruit_SSD130613drawFastVLineEiiij+0x126>
    1aba:	77 fd       	sbrc	r23, 7
    1abc:	b8 c0       	rjmp	.+368    	; 0x1c2e <_ZN16Adafruit_SSD130613drawFastVLineEiiij+0x2aa>
    1abe:	14 96       	adiw	r26, 0x04	; 4
    1ac0:	8d 91       	ld	r24, X+
    1ac2:	9c 91       	ld	r25, X
    1ac4:	15 97       	sbiw	r26, 0x05	; 5
    1ac6:	68 17       	cp	r22, r24
    1ac8:	79 07       	cpc	r23, r25
    1aca:	0c f0       	brlt	.+2      	; 0x1ace <_ZN16Adafruit_SSD130613drawFastVLineEiiij+0x14a>
    1acc:	b0 c0       	rjmp	.+352    	; 0x1c2e <_ZN16Adafruit_SSD130613drawFastVLineEiiij+0x2aa>
    1ace:	57 ff       	sbrs	r21, 7
    1ad0:	04 c0       	rjmp	.+8      	; 0x1ada <_ZN16Adafruit_SSD130613drawFastVLineEiiij+0x156>
    1ad2:	24 0f       	add	r18, r20
    1ad4:	35 1f       	adc	r19, r21
    1ad6:	40 e0       	ldi	r20, 0x00	; 0
    1ad8:	50 e0       	ldi	r21, 0x00	; 0
    1ada:	16 96       	adiw	r26, 0x06	; 6
    1adc:	8d 91       	ld	r24, X+
    1ade:	9c 91       	ld	r25, X
    1ae0:	17 97       	sbiw	r26, 0x07	; 7
    1ae2:	fa 01       	movw	r30, r20
    1ae4:	e2 0f       	add	r30, r18
    1ae6:	f3 1f       	adc	r31, r19
    1ae8:	8e 17       	cp	r24, r30
    1aea:	9f 07       	cpc	r25, r31
    1aec:	1c f4       	brge	.+6      	; 0x1af4 <_ZN16Adafruit_SSD130613drawFastVLineEiiij+0x170>
    1aee:	9c 01       	movw	r18, r24
    1af0:	24 1b       	sub	r18, r20
    1af2:	35 0b       	sbc	r19, r21
    1af4:	12 16       	cp	r1, r18
    1af6:	13 06       	cpc	r1, r19
    1af8:	0c f0       	brlt	.+2      	; 0x1afc <_ZN16Adafruit_SSD130613drawFastVLineEiiij+0x178>
    1afa:	99 c0       	rjmp	.+306    	; 0x1c2e <_ZN16Adafruit_SSD130613drawFastVLineEiiij+0x2aa>
    1afc:	a2 2f       	mov	r26, r18
    1afe:	84 2f       	mov	r24, r20
    1b00:	86 95       	lsr	r24
    1b02:	86 95       	lsr	r24
    1b04:	86 95       	lsr	r24
    1b06:	90 e8       	ldi	r25, 0x80	; 128
    1b08:	89 9f       	mul	r24, r25
    1b0a:	60 0d       	add	r22, r0
    1b0c:	71 1d       	adc	r23, r1
    1b0e:	11 24       	eor	r1, r1
    1b10:	fb 01       	movw	r30, r22
    1b12:	ea 5e       	subi	r30, 0xEA	; 234
    1b14:	fe 4f       	sbci	r31, 0xFE	; 254
    1b16:	47 70       	andi	r20, 0x07	; 7
    1b18:	a9 f1       	breq	.+106    	; 0x1b84 <_ZN16Adafruit_SSD130613drawFastVLineEiiij+0x200>
    1b1a:	98 e0       	ldi	r25, 0x08	; 8
    1b1c:	94 1b       	sub	r25, r20
    1b1e:	49 2f       	mov	r20, r25
    1b20:	50 e0       	ldi	r21, 0x00	; 0
    1b22:	ea 01       	movw	r28, r20
    1b24:	c2 5f       	subi	r28, 0xF2	; 242
    1b26:	de 4f       	sbci	r29, 0xFE	; 254
    1b28:	88 81       	ld	r24, Y
    1b2a:	29 17       	cp	r18, r25
    1b2c:	90 f4       	brcc	.+36     	; 0x1b52 <_ZN16Adafruit_SSD130613drawFastVLineEiiij+0x1ce>
    1b2e:	42 1b       	sub	r20, r18
    1b30:	51 09       	sbc	r21, r1
    1b32:	2f ef       	ldi	r18, 0xFF	; 255
    1b34:	30 e0       	ldi	r19, 0x00	; 0
    1b36:	02 c0       	rjmp	.+4      	; 0x1b3c <_ZN16Adafruit_SSD130613drawFastVLineEiiij+0x1b8>
    1b38:	35 95       	asr	r19
    1b3a:	27 95       	ror	r18
    1b3c:	4a 95       	dec	r20
    1b3e:	e2 f7       	brpl	.-8      	; 0x1b38 <_ZN16Adafruit_SSD130613drawFastVLineEiiij+0x1b4>
    1b40:	82 23       	and	r24, r18
    1b42:	01 30       	cpi	r16, 0x01	; 1
    1b44:	11 05       	cpc	r17, r1
    1b46:	41 f0       	breq	.+16     	; 0x1b58 <_ZN16Adafruit_SSD130613drawFastVLineEiiij+0x1d4>
    1b48:	68 f0       	brcs	.+26     	; 0x1b64 <_ZN16Adafruit_SSD130613drawFastVLineEiiij+0x1e0>
    1b4a:	02 30       	cpi	r16, 0x02	; 2
    1b4c:	11 05       	cpc	r17, r1
    1b4e:	89 f0       	breq	.+34     	; 0x1b72 <_ZN16Adafruit_SSD130613drawFastVLineEiiij+0x1ee>
    1b50:	6e c0       	rjmp	.+220    	; 0x1c2e <_ZN16Adafruit_SSD130613drawFastVLineEiiij+0x2aa>
    1b52:	01 30       	cpi	r16, 0x01	; 1
    1b54:	11 05       	cpc	r17, r1
    1b56:	19 f4       	brne	.+6      	; 0x1b5e <_ZN16Adafruit_SSD130613drawFastVLineEiiij+0x1da>
    1b58:	20 81       	ld	r18, Z
    1b5a:	82 2b       	or	r24, r18
    1b5c:	0c c0       	rjmp	.+24     	; 0x1b76 <_ZN16Adafruit_SSD130613drawFastVLineEiiij+0x1f2>
    1b5e:	01 30       	cpi	r16, 0x01	; 1
    1b60:	11 05       	cpc	r17, r1
    1b62:	20 f4       	brcc	.+8      	; 0x1b6c <_ZN16Adafruit_SSD130613drawFastVLineEiiij+0x1e8>
    1b64:	80 95       	com	r24
    1b66:	20 81       	ld	r18, Z
    1b68:	82 23       	and	r24, r18
    1b6a:	05 c0       	rjmp	.+10     	; 0x1b76 <_ZN16Adafruit_SSD130613drawFastVLineEiiij+0x1f2>
    1b6c:	02 30       	cpi	r16, 0x02	; 2
    1b6e:	11 05       	cpc	r17, r1
    1b70:	31 f4       	brne	.+12     	; 0x1b7e <_ZN16Adafruit_SSD130613drawFastVLineEiiij+0x1fa>
    1b72:	20 81       	ld	r18, Z
    1b74:	82 27       	eor	r24, r18
    1b76:	80 83       	st	Z, r24
    1b78:	a9 17       	cp	r26, r25
    1b7a:	08 f4       	brcc	.+2      	; 0x1b7e <_ZN16Adafruit_SSD130613drawFastVLineEiiij+0x1fa>
    1b7c:	58 c0       	rjmp	.+176    	; 0x1c2e <_ZN16Adafruit_SSD130613drawFastVLineEiiij+0x2aa>
    1b7e:	a9 1b       	sub	r26, r25
    1b80:	e0 58       	subi	r30, 0x80	; 128
    1b82:	ff 4f       	sbci	r31, 0xFF	; 255
    1b84:	a8 30       	cpi	r26, 0x08	; 8
    1b86:	48 f1       	brcs	.+82     	; 0x1bda <_ZN16Adafruit_SSD130613drawFastVLineEiiij+0x256>
    1b88:	02 30       	cpi	r16, 0x02	; 2
    1b8a:	11 05       	cpc	r17, r1
    1b8c:	59 f4       	brne	.+22     	; 0x1ba4 <_ZN16Adafruit_SSD130613drawFastVLineEiiij+0x220>
    1b8e:	ef 01       	movw	r28, r30
    1b90:	8a 2f       	mov	r24, r26
    1b92:	98 81       	ld	r25, Y
    1b94:	90 95       	com	r25
    1b96:	98 83       	st	Y, r25
    1b98:	c0 58       	subi	r28, 0x80	; 128
    1b9a:	df 4f       	sbci	r29, 0xFF	; 255
    1b9c:	88 50       	subi	r24, 0x08	; 8
    1b9e:	88 30       	cpi	r24, 0x08	; 8
    1ba0:	c0 f7       	brcc	.-16     	; 0x1b92 <_ZN16Adafruit_SSD130613drawFastVLineEiiij+0x20e>
    1ba2:	30 c0       	rjmp	.+96     	; 0x1c04 <_ZN16Adafruit_SSD130613drawFastVLineEiiij+0x280>
    1ba4:	81 e0       	ldi	r24, 0x01	; 1
    1ba6:	01 30       	cpi	r16, 0x01	; 1
    1ba8:	11 05       	cpc	r17, r1
    1baa:	09 f0       	breq	.+2      	; 0x1bae <_ZN16Adafruit_SSD130613drawFastVLineEiiij+0x22a>
    1bac:	80 e0       	ldi	r24, 0x00	; 0
    1bae:	81 95       	neg	r24
    1bb0:	ef 01       	movw	r28, r30
    1bb2:	9a 2f       	mov	r25, r26
    1bb4:	88 83       	st	Y, r24
    1bb6:	c0 58       	subi	r28, 0x80	; 128
    1bb8:	df 4f       	sbci	r29, 0xFF	; 255
    1bba:	98 50       	subi	r25, 0x08	; 8
    1bbc:	98 30       	cpi	r25, 0x08	; 8
    1bbe:	d0 f7       	brcc	.-12     	; 0x1bb4 <_ZN16Adafruit_SSD130613drawFastVLineEiiij+0x230>
    1bc0:	88 ef       	ldi	r24, 0xF8	; 248
    1bc2:	8a 0f       	add	r24, r26
    1bc4:	86 95       	lsr	r24
    1bc6:	86 95       	lsr	r24
    1bc8:	86 95       	lsr	r24
    1bca:	90 e8       	ldi	r25, 0x80	; 128
    1bcc:	89 9f       	mul	r24, r25
    1bce:	e0 0d       	add	r30, r0
    1bd0:	f1 1d       	adc	r31, r1
    1bd2:	11 24       	eor	r1, r1
    1bd4:	e0 58       	subi	r30, 0x80	; 128
    1bd6:	ff 4f       	sbci	r31, 0xFF	; 255
    1bd8:	a7 70       	andi	r26, 0x07	; 7
    1bda:	aa 23       	and	r26, r26
    1bdc:	41 f1       	breq	.+80     	; 0x1c2e <_ZN16Adafruit_SSD130613drawFastVLineEiiij+0x2aa>
    1bde:	b0 e0       	ldi	r27, 0x00	; 0
    1be0:	aa 5f       	subi	r26, 0xFA	; 250
    1be2:	be 4f       	sbci	r27, 0xFE	; 254
    1be4:	8c 91       	ld	r24, X
    1be6:	01 30       	cpi	r16, 0x01	; 1
    1be8:	11 05       	cpc	r17, r1
    1bea:	29 f0       	breq	.+10     	; 0x1bf6 <_ZN16Adafruit_SSD130613drawFastVLineEiiij+0x272>
    1bec:	38 f0       	brcs	.+14     	; 0x1bfc <_ZN16Adafruit_SSD130613drawFastVLineEiiij+0x278>
    1bee:	02 30       	cpi	r16, 0x02	; 2
    1bf0:	11 05       	cpc	r17, r1
    1bf2:	d1 f0       	breq	.+52     	; 0x1c28 <_ZN16Adafruit_SSD130613drawFastVLineEiiij+0x2a4>
    1bf4:	1c c0       	rjmp	.+56     	; 0x1c2e <_ZN16Adafruit_SSD130613drawFastVLineEiiij+0x2aa>
    1bf6:	90 81       	ld	r25, Z
    1bf8:	89 2b       	or	r24, r25
    1bfa:	18 c0       	rjmp	.+48     	; 0x1c2c <_ZN16Adafruit_SSD130613drawFastVLineEiiij+0x2a8>
    1bfc:	80 95       	com	r24
    1bfe:	90 81       	ld	r25, Z
    1c00:	89 23       	and	r24, r25
    1c02:	14 c0       	rjmp	.+40     	; 0x1c2c <_ZN16Adafruit_SSD130613drawFastVLineEiiij+0x2a8>
    1c04:	88 ef       	ldi	r24, 0xF8	; 248
    1c06:	8a 0f       	add	r24, r26
    1c08:	86 95       	lsr	r24
    1c0a:	86 95       	lsr	r24
    1c0c:	86 95       	lsr	r24
    1c0e:	90 e8       	ldi	r25, 0x80	; 128
    1c10:	89 9f       	mul	r24, r25
    1c12:	e0 0d       	add	r30, r0
    1c14:	f1 1d       	adc	r31, r1
    1c16:	11 24       	eor	r1, r1
    1c18:	e0 58       	subi	r30, 0x80	; 128
    1c1a:	ff 4f       	sbci	r31, 0xFF	; 255
    1c1c:	a7 70       	andi	r26, 0x07	; 7
    1c1e:	39 f0       	breq	.+14     	; 0x1c2e <_ZN16Adafruit_SSD130613drawFastVLineEiiij+0x2aa>
    1c20:	b0 e0       	ldi	r27, 0x00	; 0
    1c22:	aa 5f       	subi	r26, 0xFA	; 250
    1c24:	be 4f       	sbci	r27, 0xFE	; 254
    1c26:	8c 91       	ld	r24, X
    1c28:	90 81       	ld	r25, Z
    1c2a:	89 27       	eor	r24, r25
    1c2c:	80 83       	st	Z, r24
    1c2e:	df 91       	pop	r29
    1c30:	cf 91       	pop	r28
    1c32:	1f 91       	pop	r17
    1c34:	0f 91       	pop	r16
    1c36:	08 95       	ret

00001c38 <_ZN16Adafruit_SSD13069drawPixelEiij>:
    1c38:	cf 92       	push	r12
    1c3a:	df 92       	push	r13
    1c3c:	ef 92       	push	r14
    1c3e:	ff 92       	push	r15
    1c40:	0f 93       	push	r16
    1c42:	1f 93       	push	r17
    1c44:	cf 93       	push	r28
    1c46:	df 93       	push	r29
    1c48:	7c 01       	movw	r14, r24
    1c4a:	8b 01       	movw	r16, r22
    1c4c:	ea 01       	movw	r28, r20
    1c4e:	69 01       	movw	r12, r18
    1c50:	77 fd       	sbrc	r23, 7
    1c52:	a0 c0       	rjmp	.+320    	; 0x1d94 <_ZN16Adafruit_SSD13069drawPixelEiij+0x15c>
    1c54:	0e 94 60 0b 	call	0x16c0	; 0x16c0 <_ZNK12Adafruit_GFX5widthEv>
    1c58:	08 17       	cp	r16, r24
    1c5a:	19 07       	cpc	r17, r25
    1c5c:	0c f0       	brlt	.+2      	; 0x1c60 <_ZN16Adafruit_SSD13069drawPixelEiij+0x28>
    1c5e:	9a c0       	rjmp	.+308    	; 0x1d94 <_ZN16Adafruit_SSD13069drawPixelEiij+0x15c>
    1c60:	d7 fd       	sbrc	r29, 7
    1c62:	98 c0       	rjmp	.+304    	; 0x1d94 <_ZN16Adafruit_SSD13069drawPixelEiij+0x15c>
    1c64:	c7 01       	movw	r24, r14
    1c66:	0e 94 64 0b 	call	0x16c8	; 0x16c8 <_ZNK12Adafruit_GFX6heightEv>
    1c6a:	c8 17       	cp	r28, r24
    1c6c:	d9 07       	cpc	r29, r25
    1c6e:	0c f0       	brlt	.+2      	; 0x1c72 <_ZN16Adafruit_SSD13069drawPixelEiij+0x3a>
    1c70:	91 c0       	rjmp	.+290    	; 0x1d94 <_ZN16Adafruit_SSD13069drawPixelEiij+0x15c>
    1c72:	c7 01       	movw	r24, r14
    1c74:	0e 94 5d 0b 	call	0x16ba	; 0x16ba <_ZNK12Adafruit_GFX11getRotationEv>
    1c78:	82 30       	cpi	r24, 0x02	; 2
    1c7a:	09 f0       	breq	.+2      	; 0x1c7e <_ZN16Adafruit_SSD13069drawPixelEiij+0x46>
    1c7c:	7f c0       	rjmp	.+254    	; 0x1d7c <_ZN16Adafruit_SSD13069drawPixelEiij+0x144>
    1c7e:	f7 01       	movw	r30, r14
    1c80:	64 81       	ldd	r22, Z+4	; 0x04
    1c82:	75 81       	ldd	r23, Z+5	; 0x05
    1c84:	cb 01       	movw	r24, r22
    1c86:	80 1b       	sub	r24, r16
    1c88:	91 0b       	sbc	r25, r17
    1c8a:	8c 01       	movw	r16, r24
    1c8c:	01 50       	subi	r16, 0x01	; 1
    1c8e:	11 09       	sbc	r17, r1
    1c90:	46 81       	ldd	r20, Z+6	; 0x06
    1c92:	57 81       	ldd	r21, Z+7	; 0x07
    1c94:	fa 01       	movw	r30, r20
    1c96:	ec 1b       	sub	r30, r28
    1c98:	fd 0b       	sbc	r31, r29
    1c9a:	ef 01       	movw	r28, r30
    1c9c:	21 97       	sbiw	r28, 0x01	; 1
    1c9e:	0b c0       	rjmp	.+22     	; 0x1cb6 <_ZN16Adafruit_SSD13069drawPixelEiij+0x7e>
    1ca0:	81 30       	cpi	r24, 0x01	; 1
    1ca2:	49 f4       	brne	.+18     	; 0x1cb6 <_ZN16Adafruit_SSD13069drawPixelEiij+0x7e>
    1ca4:	f7 01       	movw	r30, r14
    1ca6:	84 81       	ldd	r24, Z+4	; 0x04
    1ca8:	95 81       	ldd	r25, Z+5	; 0x05
    1caa:	8c 1b       	sub	r24, r28
    1cac:	9d 0b       	sbc	r25, r29
    1cae:	e8 01       	movw	r28, r16
    1cb0:	8c 01       	movw	r16, r24
    1cb2:	01 50       	subi	r16, 0x01	; 1
    1cb4:	11 09       	sbc	r17, r1
    1cb6:	f1 e0       	ldi	r31, 0x01	; 1
    1cb8:	cf 16       	cp	r12, r31
    1cba:	d1 04       	cpc	r13, r1
    1cbc:	31 f0       	breq	.+12     	; 0x1cca <_ZN16Adafruit_SSD13069drawPixelEiij+0x92>
    1cbe:	10 f1       	brcs	.+68     	; 0x1d04 <_ZN16Adafruit_SSD13069drawPixelEiij+0xcc>
    1cc0:	82 e0       	ldi	r24, 0x02	; 2
    1cc2:	c8 16       	cp	r12, r24
    1cc4:	d1 04       	cpc	r13, r1
    1cc6:	e1 f1       	breq	.+120    	; 0x1d40 <_ZN16Adafruit_SSD13069drawPixelEiij+0x108>
    1cc8:	65 c0       	rjmp	.+202    	; 0x1d94 <_ZN16Adafruit_SSD13069drawPixelEiij+0x15c>
    1cca:	fe 01       	movw	r30, r28
    1ccc:	d7 fd       	sbrc	r29, 7
    1cce:	37 96       	adiw	r30, 0x07	; 7
    1cd0:	43 e0       	ldi	r20, 0x03	; 3
    1cd2:	f5 95       	asr	r31
    1cd4:	e7 95       	ror	r30
    1cd6:	4a 95       	dec	r20
    1cd8:	e1 f7       	brne	.-8      	; 0x1cd2 <_ZN16Adafruit_SSD13069drawPixelEiij+0x9a>
    1cda:	f6 95       	lsr	r31
    1cdc:	fe 2f       	mov	r31, r30
    1cde:	ee 27       	eor	r30, r30
    1ce0:	f7 95       	ror	r31
    1ce2:	e7 95       	ror	r30
    1ce4:	0e 0f       	add	r16, r30
    1ce6:	1f 1f       	adc	r17, r31
    1ce8:	f8 01       	movw	r30, r16
    1cea:	ea 5e       	subi	r30, 0xEA	; 234
    1cec:	fe 4f       	sbci	r31, 0xFE	; 254
    1cee:	c7 70       	andi	r28, 0x07	; 7
    1cf0:	dd 27       	eor	r29, r29
    1cf2:	81 e0       	ldi	r24, 0x01	; 1
    1cf4:	90 e0       	ldi	r25, 0x00	; 0
    1cf6:	01 c0       	rjmp	.+2      	; 0x1cfa <_ZN16Adafruit_SSD13069drawPixelEiij+0xc2>
    1cf8:	88 0f       	add	r24, r24
    1cfa:	ca 95       	dec	r28
    1cfc:	ea f7       	brpl	.-6      	; 0x1cf8 <_ZN16Adafruit_SSD13069drawPixelEiij+0xc0>
    1cfe:	90 81       	ld	r25, Z
    1d00:	89 2b       	or	r24, r25
    1d02:	3a c0       	rjmp	.+116    	; 0x1d78 <_ZN16Adafruit_SSD13069drawPixelEiij+0x140>
    1d04:	fe 01       	movw	r30, r28
    1d06:	d7 fd       	sbrc	r29, 7
    1d08:	37 96       	adiw	r30, 0x07	; 7
    1d0a:	23 e0       	ldi	r18, 0x03	; 3
    1d0c:	f5 95       	asr	r31
    1d0e:	e7 95       	ror	r30
    1d10:	2a 95       	dec	r18
    1d12:	e1 f7       	brne	.-8      	; 0x1d0c <_ZN16Adafruit_SSD13069drawPixelEiij+0xd4>
    1d14:	f6 95       	lsr	r31
    1d16:	fe 2f       	mov	r31, r30
    1d18:	ee 27       	eor	r30, r30
    1d1a:	f7 95       	ror	r31
    1d1c:	e7 95       	ror	r30
    1d1e:	0e 0f       	add	r16, r30
    1d20:	1f 1f       	adc	r17, r31
    1d22:	f8 01       	movw	r30, r16
    1d24:	ea 5e       	subi	r30, 0xEA	; 234
    1d26:	fe 4f       	sbci	r31, 0xFE	; 254
    1d28:	c7 70       	andi	r28, 0x07	; 7
    1d2a:	dd 27       	eor	r29, r29
    1d2c:	81 e0       	ldi	r24, 0x01	; 1
    1d2e:	90 e0       	ldi	r25, 0x00	; 0
    1d30:	01 c0       	rjmp	.+2      	; 0x1d34 <_ZN16Adafruit_SSD13069drawPixelEiij+0xfc>
    1d32:	88 0f       	add	r24, r24
    1d34:	ca 95       	dec	r28
    1d36:	ea f7       	brpl	.-6      	; 0x1d32 <_ZN16Adafruit_SSD13069drawPixelEiij+0xfa>
    1d38:	80 95       	com	r24
    1d3a:	90 81       	ld	r25, Z
    1d3c:	89 23       	and	r24, r25
    1d3e:	1c c0       	rjmp	.+56     	; 0x1d78 <_ZN16Adafruit_SSD13069drawPixelEiij+0x140>
    1d40:	fe 01       	movw	r30, r28
    1d42:	d7 fd       	sbrc	r29, 7
    1d44:	37 96       	adiw	r30, 0x07	; 7
    1d46:	83 e0       	ldi	r24, 0x03	; 3
    1d48:	f5 95       	asr	r31
    1d4a:	e7 95       	ror	r30
    1d4c:	8a 95       	dec	r24
    1d4e:	e1 f7       	brne	.-8      	; 0x1d48 <_ZN16Adafruit_SSD13069drawPixelEiij+0x110>
    1d50:	f6 95       	lsr	r31
    1d52:	fe 2f       	mov	r31, r30
    1d54:	ee 27       	eor	r30, r30
    1d56:	f7 95       	ror	r31
    1d58:	e7 95       	ror	r30
    1d5a:	0e 0f       	add	r16, r30
    1d5c:	1f 1f       	adc	r17, r31
    1d5e:	f8 01       	movw	r30, r16
    1d60:	ea 5e       	subi	r30, 0xEA	; 234
    1d62:	fe 4f       	sbci	r31, 0xFE	; 254
    1d64:	c7 70       	andi	r28, 0x07	; 7
    1d66:	dd 27       	eor	r29, r29
    1d68:	81 e0       	ldi	r24, 0x01	; 1
    1d6a:	90 e0       	ldi	r25, 0x00	; 0
    1d6c:	01 c0       	rjmp	.+2      	; 0x1d70 <_ZN16Adafruit_SSD13069drawPixelEiij+0x138>
    1d6e:	88 0f       	add	r24, r24
    1d70:	ca 95       	dec	r28
    1d72:	ea f7       	brpl	.-6      	; 0x1d6e <_ZN16Adafruit_SSD13069drawPixelEiij+0x136>
    1d74:	90 81       	ld	r25, Z
    1d76:	89 27       	eor	r24, r25
    1d78:	80 83       	st	Z, r24
    1d7a:	0c c0       	rjmp	.+24     	; 0x1d94 <_ZN16Adafruit_SSD13069drawPixelEiij+0x15c>
    1d7c:	83 30       	cpi	r24, 0x03	; 3
    1d7e:	09 f0       	breq	.+2      	; 0x1d82 <_ZN16Adafruit_SSD13069drawPixelEiij+0x14a>
    1d80:	8f cf       	rjmp	.-226    	; 0x1ca0 <_ZN16Adafruit_SSD13069drawPixelEiij+0x68>
    1d82:	f7 01       	movw	r30, r14
    1d84:	86 81       	ldd	r24, Z+6	; 0x06
    1d86:	97 81       	ldd	r25, Z+7	; 0x07
    1d88:	80 1b       	sub	r24, r16
    1d8a:	91 0b       	sbc	r25, r17
    1d8c:	8e 01       	movw	r16, r28
    1d8e:	ec 01       	movw	r28, r24
    1d90:	21 97       	sbiw	r28, 0x01	; 1
    1d92:	91 cf       	rjmp	.-222    	; 0x1cb6 <_ZN16Adafruit_SSD13069drawPixelEiij+0x7e>
    1d94:	df 91       	pop	r29
    1d96:	cf 91       	pop	r28
    1d98:	1f 91       	pop	r17
    1d9a:	0f 91       	pop	r16
    1d9c:	ff 90       	pop	r15
    1d9e:	ef 90       	pop	r14
    1da0:	df 90       	pop	r13
    1da2:	cf 90       	pop	r12
    1da4:	08 95       	ret

00001da6 <_ZN16Adafruit_SSD1306C1Ea>:
    1da6:	1f 93       	push	r17
    1da8:	cf 93       	push	r28
    1daa:	df 93       	push	r29
    1dac:	ec 01       	movw	r28, r24
    1dae:	16 2f       	mov	r17, r22
    1db0:	40 e4       	ldi	r20, 0x40	; 64
    1db2:	50 e0       	ldi	r21, 0x00	; 0
    1db4:	60 e8       	ldi	r22, 0x80	; 128
    1db6:	70 e0       	ldi	r23, 0x00	; 0
    1db8:	0e 94 3e 08 	call	0x107c	; 0x107c <_ZN12Adafruit_GFXC1Eii>
    1dbc:	82 e8       	ldi	r24, 0x82	; 130
    1dbe:	95 e0       	ldi	r25, 0x05	; 5
    1dc0:	99 83       	std	Y+1, r25	; 0x01
    1dc2:	88 83       	st	Y, r24
    1dc4:	8f ef       	ldi	r24, 0xFF	; 255
    1dc6:	8c 8f       	std	Y+28, r24	; 0x1c
    1dc8:	88 a3       	std	Y+32, r24	; 0x20
    1dca:	8e 8f       	std	Y+30, r24	; 0x1e
    1dcc:	8d 8f       	std	Y+29, r24	; 0x1d
    1dce:	1f 8f       	std	Y+31, r17	; 0x1f
    1dd0:	df 91       	pop	r29
    1dd2:	cf 91       	pop	r28
    1dd4:	1f 91       	pop	r17
    1dd6:	08 95       	ret

00001dd8 <_ZN16Adafruit_SSD130612clearDisplayEv>:
    1dd8:	80 e0       	ldi	r24, 0x00	; 0
    1dda:	94 e0       	ldi	r25, 0x04	; 4
    1ddc:	e6 e1       	ldi	r30, 0x16	; 22
    1dde:	f1 e0       	ldi	r31, 0x01	; 1
    1de0:	df 01       	movw	r26, r30
    1de2:	9c 01       	movw	r18, r24
    1de4:	1d 92       	st	X+, r1
    1de6:	21 50       	subi	r18, 0x01	; 1
    1de8:	30 40       	sbci	r19, 0x00	; 0
    1dea:	e1 f7       	brne	.-8      	; 0x1de4 <_ZN16Adafruit_SSD130612clearDisplayEv+0xc>
    1dec:	08 95       	ret

00001dee <_ZN16Adafruit_SSD130612fastSPIwriteEh>:
    1dee:	fc 01       	movw	r30, r24
    1df0:	81 a1       	ldd	r24, Z+33	; 0x21
    1df2:	88 23       	and	r24, r24
    1df4:	39 f0       	breq	.+14     	; 0x1e04 <_ZN16Adafruit_SSD130612fastSPIwriteEh+0x16>
    1df6:	6e bd       	out	0x2e, r22	; 46
    1df8:	00 00       	nop
    1dfa:	0d b4       	in	r0, 0x2d	; 45
    1dfc:	07 fe       	sbrs	r0, 7
    1dfe:	fd cf       	rjmp	.-6      	; 0x1dfa <_ZN16Adafruit_SSD130612fastSPIwriteEh+0xc>
    1e00:	8e b5       	in	r24, 0x2e	; 46
    1e02:	08 95       	ret
    1e04:	28 e0       	ldi	r18, 0x08	; 8
    1e06:	30 e0       	ldi	r19, 0x00	; 0
    1e08:	90 e8       	ldi	r25, 0x80	; 128
    1e0a:	a4 a1       	ldd	r26, Z+36	; 0x24
    1e0c:	b5 a1       	ldd	r27, Z+37	; 0x25
    1e0e:	4c 91       	ld	r20, X
    1e10:	83 a5       	ldd	r24, Z+43	; 0x2b
    1e12:	80 95       	com	r24
    1e14:	84 23       	and	r24, r20
    1e16:	8c 93       	st	X, r24
    1e18:	a2 a1       	ldd	r26, Z+34	; 0x22
    1e1a:	b3 a1       	ldd	r27, Z+35	; 0x23
    1e1c:	82 a5       	ldd	r24, Z+42	; 0x2a
    1e1e:	49 2f       	mov	r20, r25
    1e20:	46 23       	and	r20, r22
    1e22:	19 f0       	breq	.+6      	; 0x1e2a <_ZN16Adafruit_SSD130612fastSPIwriteEh+0x3c>
    1e24:	4c 91       	ld	r20, X
    1e26:	84 2b       	or	r24, r20
    1e28:	03 c0       	rjmp	.+6      	; 0x1e30 <_ZN16Adafruit_SSD130612fastSPIwriteEh+0x42>
    1e2a:	4c 91       	ld	r20, X
    1e2c:	80 95       	com	r24
    1e2e:	84 23       	and	r24, r20
    1e30:	8c 93       	st	X, r24
    1e32:	a4 a1       	ldd	r26, Z+36	; 0x24
    1e34:	b5 a1       	ldd	r27, Z+37	; 0x25
    1e36:	4c 91       	ld	r20, X
    1e38:	83 a5       	ldd	r24, Z+43	; 0x2b
    1e3a:	84 2b       	or	r24, r20
    1e3c:	8c 93       	st	X, r24
    1e3e:	96 95       	lsr	r25
    1e40:	21 50       	subi	r18, 0x01	; 1
    1e42:	31 09       	sbc	r19, r1
    1e44:	11 f7       	brne	.-60     	; 0x1e0a <_ZN16Adafruit_SSD130612fastSPIwriteEh+0x1c>
    1e46:	08 95       	ret

00001e48 <_ZN16Adafruit_SSD130615ssd1306_commandEh>:
    1e48:	1f 93       	push	r17
    1e4a:	cf 93       	push	r28
    1e4c:	df 93       	push	r29
    1e4e:	ec 01       	movw	r28, r24
    1e50:	16 2f       	mov	r17, r22
    1e52:	8c 8d       	ldd	r24, Y+28	; 0x1c
    1e54:	8f 3f       	cpi	r24, 0xFF	; 255
    1e56:	09 f1       	breq	.+66     	; 0x1e9a <_ZN16Adafruit_SSD130615ssd1306_commandEh+0x52>
    1e58:	ee a1       	ldd	r30, Y+38	; 0x26
    1e5a:	ff a1       	ldd	r31, Y+39	; 0x27
    1e5c:	90 81       	ld	r25, Z
    1e5e:	8c a5       	ldd	r24, Y+44	; 0x2c
    1e60:	89 2b       	or	r24, r25
    1e62:	80 83       	st	Z, r24
    1e64:	e8 a5       	ldd	r30, Y+40	; 0x28
    1e66:	f9 a5       	ldd	r31, Y+41	; 0x29
    1e68:	90 81       	ld	r25, Z
    1e6a:	8d a5       	ldd	r24, Y+45	; 0x2d
    1e6c:	80 95       	com	r24
    1e6e:	89 23       	and	r24, r25
    1e70:	80 83       	st	Z, r24
    1e72:	ee a1       	ldd	r30, Y+38	; 0x26
    1e74:	ff a1       	ldd	r31, Y+39	; 0x27
    1e76:	90 81       	ld	r25, Z
    1e78:	8c a5       	ldd	r24, Y+44	; 0x2c
    1e7a:	80 95       	com	r24
    1e7c:	89 23       	and	r24, r25
    1e7e:	80 83       	st	Z, r24
    1e80:	ce 01       	movw	r24, r28
    1e82:	0e 94 f7 0e 	call	0x1dee	; 0x1dee <_ZN16Adafruit_SSD130612fastSPIwriteEh>
    1e86:	ee a1       	ldd	r30, Y+38	; 0x26
    1e88:	ff a1       	ldd	r31, Y+39	; 0x27
    1e8a:	90 81       	ld	r25, Z
    1e8c:	8c a5       	ldd	r24, Y+44	; 0x2c
    1e8e:	89 2b       	or	r24, r25
    1e90:	80 83       	st	Z, r24
    1e92:	df 91       	pop	r29
    1e94:	cf 91       	pop	r28
    1e96:	1f 91       	pop	r17
    1e98:	08 95       	ret
    1e9a:	8a 8d       	ldd	r24, Y+26	; 0x1a
    1e9c:	68 2f       	mov	r22, r24
    1e9e:	88 0f       	add	r24, r24
    1ea0:	77 0b       	sbc	r23, r23
    1ea2:	85 ec       	ldi	r24, 0xC5	; 197
    1ea4:	96 e0       	ldi	r25, 0x06	; 6
    1ea6:	0e 94 da 13 	call	0x27b4	; 0x27b4 <_ZN7TwoWire17beginTransmissionEi>
    1eaa:	60 e0       	ldi	r22, 0x00	; 0
    1eac:	85 ec       	ldi	r24, 0xC5	; 197
    1eae:	96 e0       	ldi	r25, 0x06	; 6
    1eb0:	0e 94 87 13 	call	0x270e	; 0x270e <_ZN7TwoWire5writeEh>
    1eb4:	61 2f       	mov	r22, r17
    1eb6:	85 ec       	ldi	r24, 0xC5	; 197
    1eb8:	96 e0       	ldi	r25, 0x06	; 6
    1eba:	0e 94 87 13 	call	0x270e	; 0x270e <_ZN7TwoWire5writeEh>
    1ebe:	85 ec       	ldi	r24, 0xC5	; 197
    1ec0:	96 e0       	ldi	r25, 0x06	; 6
    1ec2:	df 91       	pop	r29
    1ec4:	cf 91       	pop	r28
    1ec6:	1f 91       	pop	r17
    1ec8:	0c 94 ef 13 	jmp	0x27de	; 0x27de <_ZN7TwoWire15endTransmissionEv>

00001ecc <_ZN16Adafruit_SSD13065beginEhhb>:
    1ecc:	0f 93       	push	r16
    1ece:	1f 93       	push	r17
    1ed0:	cf 93       	push	r28
    1ed2:	df 93       	push	r29
    1ed4:	ec 01       	movw	r28, r24
    1ed6:	16 2f       	mov	r17, r22
    1ed8:	02 2f       	mov	r16, r18
    1eda:	6b 8f       	std	Y+27, r22	; 0x1b
    1edc:	4a 8f       	std	Y+26, r20	; 0x1a
    1ede:	8c 8d       	ldd	r24, Y+28	; 0x1c
    1ee0:	8f 3f       	cpi	r24, 0xFF	; 255
    1ee2:	09 f4       	brne	.+2      	; 0x1ee6 <_ZN16Adafruit_SSD13065beginEhhb+0x1a>
    1ee4:	8c c0       	rjmp	.+280    	; 0x1ffe <_ZN16Adafruit_SSD13065beginEhhb+0x132>
    1ee6:	61 e0       	ldi	r22, 0x01	; 1
    1ee8:	8e 8d       	ldd	r24, Y+30	; 0x1e
    1eea:	0e 94 30 19 	call	0x3260	; 0x3260 <pinMode>
    1eee:	61 e0       	ldi	r22, 0x01	; 1
    1ef0:	88 a1       	ldd	r24, Y+32	; 0x20
    1ef2:	0e 94 30 19 	call	0x3260	; 0x3260 <pinMode>
    1ef6:	88 a1       	ldd	r24, Y+32	; 0x20
    1ef8:	08 2e       	mov	r0, r24
    1efa:	00 0c       	add	r0, r0
    1efc:	99 0b       	sbc	r25, r25
    1efe:	fc 01       	movw	r30, r24
    1f00:	e0 57       	subi	r30, 0x70	; 112
    1f02:	fa 4f       	sbci	r31, 0xFA	; 250
    1f04:	e4 91       	lpm	r30, Z
    1f06:	f0 e0       	ldi	r31, 0x00	; 0
    1f08:	ee 0f       	add	r30, r30
    1f0a:	ff 1f       	adc	r31, r31
    1f0c:	ec 55       	subi	r30, 0x5C	; 92
    1f0e:	fa 4f       	sbci	r31, 0xFA	; 250
    1f10:	25 91       	lpm	r18, Z+
    1f12:	34 91       	lpm	r19, Z
    1f14:	3f a3       	std	Y+39, r19	; 0x27
    1f16:	2e a3       	std	Y+38, r18	; 0x26
    1f18:	fc 01       	movw	r30, r24
    1f1a:	e4 58       	subi	r30, 0x84	; 132
    1f1c:	fa 4f       	sbci	r31, 0xFA	; 250
    1f1e:	e4 91       	lpm	r30, Z
    1f20:	ec a7       	std	Y+44, r30	; 0x2c
    1f22:	8e 8d       	ldd	r24, Y+30	; 0x1e
    1f24:	08 2e       	mov	r0, r24
    1f26:	00 0c       	add	r0, r0
    1f28:	99 0b       	sbc	r25, r25
    1f2a:	fc 01       	movw	r30, r24
    1f2c:	e0 57       	subi	r30, 0x70	; 112
    1f2e:	fa 4f       	sbci	r31, 0xFA	; 250
    1f30:	e4 91       	lpm	r30, Z
    1f32:	f0 e0       	ldi	r31, 0x00	; 0
    1f34:	ee 0f       	add	r30, r30
    1f36:	ff 1f       	adc	r31, r31
    1f38:	ec 55       	subi	r30, 0x5C	; 92
    1f3a:	fa 4f       	sbci	r31, 0xFA	; 250
    1f3c:	25 91       	lpm	r18, Z+
    1f3e:	34 91       	lpm	r19, Z
    1f40:	39 a7       	std	Y+41, r19	; 0x29
    1f42:	28 a7       	std	Y+40, r18	; 0x28
    1f44:	fc 01       	movw	r30, r24
    1f46:	e4 58       	subi	r30, 0x84	; 132
    1f48:	fa 4f       	sbci	r31, 0xFA	; 250
    1f4a:	e4 91       	lpm	r30, Z
    1f4c:	ed a7       	std	Y+45, r30	; 0x2d
    1f4e:	89 a1       	ldd	r24, Y+33	; 0x21
    1f50:	81 11       	cpse	r24, r1
    1f52:	34 c0       	rjmp	.+104    	; 0x1fbc <_ZN16Adafruit_SSD13065beginEhhb+0xf0>
    1f54:	61 e0       	ldi	r22, 0x01	; 1
    1f56:	8c 8d       	ldd	r24, Y+28	; 0x1c
    1f58:	0e 94 30 19 	call	0x3260	; 0x3260 <pinMode>
    1f5c:	61 e0       	ldi	r22, 0x01	; 1
    1f5e:	8d 8d       	ldd	r24, Y+29	; 0x1d
    1f60:	0e 94 30 19 	call	0x3260	; 0x3260 <pinMode>
    1f64:	8d 8d       	ldd	r24, Y+29	; 0x1d
    1f66:	08 2e       	mov	r0, r24
    1f68:	00 0c       	add	r0, r0
    1f6a:	99 0b       	sbc	r25, r25
    1f6c:	fc 01       	movw	r30, r24
    1f6e:	e0 57       	subi	r30, 0x70	; 112
    1f70:	fa 4f       	sbci	r31, 0xFA	; 250
    1f72:	e4 91       	lpm	r30, Z
    1f74:	f0 e0       	ldi	r31, 0x00	; 0
    1f76:	ee 0f       	add	r30, r30
    1f78:	ff 1f       	adc	r31, r31
    1f7a:	ec 55       	subi	r30, 0x5C	; 92
    1f7c:	fa 4f       	sbci	r31, 0xFA	; 250
    1f7e:	25 91       	lpm	r18, Z+
    1f80:	34 91       	lpm	r19, Z
    1f82:	3d a3       	std	Y+37, r19	; 0x25
    1f84:	2c a3       	std	Y+36, r18	; 0x24
    1f86:	fc 01       	movw	r30, r24
    1f88:	e4 58       	subi	r30, 0x84	; 132
    1f8a:	fa 4f       	sbci	r31, 0xFA	; 250
    1f8c:	e4 91       	lpm	r30, Z
    1f8e:	eb a7       	std	Y+43, r30	; 0x2b
    1f90:	8c 8d       	ldd	r24, Y+28	; 0x1c
    1f92:	08 2e       	mov	r0, r24
    1f94:	00 0c       	add	r0, r0
    1f96:	99 0b       	sbc	r25, r25
    1f98:	fc 01       	movw	r30, r24
    1f9a:	e0 57       	subi	r30, 0x70	; 112
    1f9c:	fa 4f       	sbci	r31, 0xFA	; 250
    1f9e:	e4 91       	lpm	r30, Z
    1fa0:	f0 e0       	ldi	r31, 0x00	; 0
    1fa2:	ee 0f       	add	r30, r30
    1fa4:	ff 1f       	adc	r31, r31
    1fa6:	ec 55       	subi	r30, 0x5C	; 92
    1fa8:	fa 4f       	sbci	r31, 0xFA	; 250
    1faa:	25 91       	lpm	r18, Z+
    1fac:	34 91       	lpm	r19, Z
    1fae:	3b a3       	std	Y+35, r19	; 0x23
    1fb0:	2a a3       	std	Y+34, r18	; 0x22
    1fb2:	fc 01       	movw	r30, r24
    1fb4:	e4 58       	subi	r30, 0x84	; 132
    1fb6:	fa 4f       	sbci	r31, 0xFA	; 250
    1fb8:	e4 91       	lpm	r30, Z
    1fba:	ea a7       	std	Y+42, r30	; 0x2a
    1fbc:	89 a1       	ldd	r24, Y+33	; 0x21
    1fbe:	88 23       	and	r24, r24
    1fc0:	11 f1       	breq	.+68     	; 0x2006 <_ZN16Adafruit_SSD13065beginEhhb+0x13a>
    1fc2:	0e 94 1c 11 	call	0x2238	; 0x2238 <_ZN8SPIClass5beginEv>
    1fc6:	80 91 55 06 	lds	r24, 0x0655	; 0x800655 <_ZN8SPIClass13interruptModeE>
    1fca:	88 23       	and	r24, r24
    1fcc:	99 f0       	breq	.+38     	; 0x1ff4 <_ZN16Adafruit_SSD13065beginEhhb+0x128>
    1fce:	2f b7       	in	r18, 0x3f	; 63
    1fd0:	f8 94       	cli
    1fd2:	80 91 55 06 	lds	r24, 0x0655	; 0x800655 <_ZN8SPIClass13interruptModeE>
    1fd6:	81 30       	cpi	r24, 0x01	; 1
    1fd8:	59 f4       	brne	.+22     	; 0x1ff0 <_ZN16Adafruit_SSD13065beginEhhb+0x124>
    1fda:	8d b3       	in	r24, 0x1d	; 29
    1fdc:	80 93 53 06 	sts	0x0653, r24	; 0x800653 <_ZN8SPIClass13interruptSaveE>
    1fe0:	9d b3       	in	r25, 0x1d	; 29
    1fe2:	80 91 54 06 	lds	r24, 0x0654	; 0x800654 <_ZN8SPIClass13interruptMaskE>
    1fe6:	80 95       	com	r24
    1fe8:	89 23       	and	r24, r25
    1fea:	8d bb       	out	0x1d, r24	; 29
    1fec:	2f bf       	out	0x3f, r18	; 63
    1fee:	02 c0       	rjmp	.+4      	; 0x1ff4 <_ZN16Adafruit_SSD13065beginEhhb+0x128>
    1ff0:	20 93 53 06 	sts	0x0653, r18	; 0x800653 <_ZN8SPIClass13interruptSaveE>
    1ff4:	80 e5       	ldi	r24, 0x50	; 80
    1ff6:	8c bd       	out	0x2c, r24	; 44
    1ff8:	81 e0       	ldi	r24, 0x01	; 1
    1ffa:	8d bd       	out	0x2d, r24	; 45
    1ffc:	04 c0       	rjmp	.+8      	; 0x2006 <_ZN16Adafruit_SSD13065beginEhhb+0x13a>
    1ffe:	85 ec       	ldi	r24, 0xC5	; 197
    2000:	96 e0       	ldi	r25, 0x06	; 6
    2002:	0e 94 c6 13 	call	0x278c	; 0x278c <_ZN7TwoWire5beginEv>
    2006:	00 23       	and	r16, r16
    2008:	f1 f0       	breq	.+60     	; 0x2046 <_ZN16Adafruit_SSD13065beginEhhb+0x17a>
    200a:	8f 8d       	ldd	r24, Y+31	; 0x1f
    200c:	87 fd       	sbrc	r24, 7
    200e:	1b c0       	rjmp	.+54     	; 0x2046 <_ZN16Adafruit_SSD13065beginEhhb+0x17a>
    2010:	61 e0       	ldi	r22, 0x01	; 1
    2012:	0e 94 30 19 	call	0x3260	; 0x3260 <pinMode>
    2016:	61 e0       	ldi	r22, 0x01	; 1
    2018:	8f 8d       	ldd	r24, Y+31	; 0x1f
    201a:	0e 94 6c 19 	call	0x32d8	; 0x32d8 <digitalWrite>
    201e:	61 e0       	ldi	r22, 0x01	; 1
    2020:	70 e0       	ldi	r23, 0x00	; 0
    2022:	80 e0       	ldi	r24, 0x00	; 0
    2024:	90 e0       	ldi	r25, 0x00	; 0
    2026:	0e 94 90 18 	call	0x3120	; 0x3120 <delay>
    202a:	60 e0       	ldi	r22, 0x00	; 0
    202c:	8f 8d       	ldd	r24, Y+31	; 0x1f
    202e:	0e 94 6c 19 	call	0x32d8	; 0x32d8 <digitalWrite>
    2032:	6a e0       	ldi	r22, 0x0A	; 10
    2034:	70 e0       	ldi	r23, 0x00	; 0
    2036:	80 e0       	ldi	r24, 0x00	; 0
    2038:	90 e0       	ldi	r25, 0x00	; 0
    203a:	0e 94 90 18 	call	0x3120	; 0x3120 <delay>
    203e:	61 e0       	ldi	r22, 0x01	; 1
    2040:	8f 8d       	ldd	r24, Y+31	; 0x1f
    2042:	0e 94 6c 19 	call	0x32d8	; 0x32d8 <digitalWrite>
    2046:	6e ea       	ldi	r22, 0xAE	; 174
    2048:	ce 01       	movw	r24, r28
    204a:	0e 94 24 0f 	call	0x1e48	; 0x1e48 <_ZN16Adafruit_SSD130615ssd1306_commandEh>
    204e:	65 ed       	ldi	r22, 0xD5	; 213
    2050:	ce 01       	movw	r24, r28
    2052:	0e 94 24 0f 	call	0x1e48	; 0x1e48 <_ZN16Adafruit_SSD130615ssd1306_commandEh>
    2056:	60 e8       	ldi	r22, 0x80	; 128
    2058:	ce 01       	movw	r24, r28
    205a:	0e 94 24 0f 	call	0x1e48	; 0x1e48 <_ZN16Adafruit_SSD130615ssd1306_commandEh>
    205e:	68 ea       	ldi	r22, 0xA8	; 168
    2060:	ce 01       	movw	r24, r28
    2062:	0e 94 24 0f 	call	0x1e48	; 0x1e48 <_ZN16Adafruit_SSD130615ssd1306_commandEh>
    2066:	6f e3       	ldi	r22, 0x3F	; 63
    2068:	ce 01       	movw	r24, r28
    206a:	0e 94 24 0f 	call	0x1e48	; 0x1e48 <_ZN16Adafruit_SSD130615ssd1306_commandEh>
    206e:	63 ed       	ldi	r22, 0xD3	; 211
    2070:	ce 01       	movw	r24, r28
    2072:	0e 94 24 0f 	call	0x1e48	; 0x1e48 <_ZN16Adafruit_SSD130615ssd1306_commandEh>
    2076:	60 e0       	ldi	r22, 0x00	; 0
    2078:	ce 01       	movw	r24, r28
    207a:	0e 94 24 0f 	call	0x1e48	; 0x1e48 <_ZN16Adafruit_SSD130615ssd1306_commandEh>
    207e:	60 e4       	ldi	r22, 0x40	; 64
    2080:	ce 01       	movw	r24, r28
    2082:	0e 94 24 0f 	call	0x1e48	; 0x1e48 <_ZN16Adafruit_SSD130615ssd1306_commandEh>
    2086:	6d e8       	ldi	r22, 0x8D	; 141
    2088:	ce 01       	movw	r24, r28
    208a:	0e 94 24 0f 	call	0x1e48	; 0x1e48 <_ZN16Adafruit_SSD130615ssd1306_commandEh>
    208e:	11 30       	cpi	r17, 0x01	; 1
    2090:	11 f4       	brne	.+4      	; 0x2096 <_ZN16Adafruit_SSD13065beginEhhb+0x1ca>
    2092:	60 e1       	ldi	r22, 0x10	; 16
    2094:	01 c0       	rjmp	.+2      	; 0x2098 <_ZN16Adafruit_SSD13065beginEhhb+0x1cc>
    2096:	64 e1       	ldi	r22, 0x14	; 20
    2098:	ce 01       	movw	r24, r28
    209a:	0e 94 24 0f 	call	0x1e48	; 0x1e48 <_ZN16Adafruit_SSD130615ssd1306_commandEh>
    209e:	60 e2       	ldi	r22, 0x20	; 32
    20a0:	ce 01       	movw	r24, r28
    20a2:	0e 94 24 0f 	call	0x1e48	; 0x1e48 <_ZN16Adafruit_SSD130615ssd1306_commandEh>
    20a6:	60 e0       	ldi	r22, 0x00	; 0
    20a8:	ce 01       	movw	r24, r28
    20aa:	0e 94 24 0f 	call	0x1e48	; 0x1e48 <_ZN16Adafruit_SSD130615ssd1306_commandEh>
    20ae:	61 ea       	ldi	r22, 0xA1	; 161
    20b0:	ce 01       	movw	r24, r28
    20b2:	0e 94 24 0f 	call	0x1e48	; 0x1e48 <_ZN16Adafruit_SSD130615ssd1306_commandEh>
    20b6:	68 ec       	ldi	r22, 0xC8	; 200
    20b8:	ce 01       	movw	r24, r28
    20ba:	0e 94 24 0f 	call	0x1e48	; 0x1e48 <_ZN16Adafruit_SSD130615ssd1306_commandEh>
    20be:	6a ed       	ldi	r22, 0xDA	; 218
    20c0:	ce 01       	movw	r24, r28
    20c2:	0e 94 24 0f 	call	0x1e48	; 0x1e48 <_ZN16Adafruit_SSD130615ssd1306_commandEh>
    20c6:	62 e1       	ldi	r22, 0x12	; 18
    20c8:	ce 01       	movw	r24, r28
    20ca:	0e 94 24 0f 	call	0x1e48	; 0x1e48 <_ZN16Adafruit_SSD130615ssd1306_commandEh>
    20ce:	61 e8       	ldi	r22, 0x81	; 129
    20d0:	ce 01       	movw	r24, r28
    20d2:	0e 94 24 0f 	call	0x1e48	; 0x1e48 <_ZN16Adafruit_SSD130615ssd1306_commandEh>
    20d6:	11 30       	cpi	r17, 0x01	; 1
    20d8:	11 f4       	brne	.+4      	; 0x20de <_ZN16Adafruit_SSD13065beginEhhb+0x212>
    20da:	6f e9       	ldi	r22, 0x9F	; 159
    20dc:	01 c0       	rjmp	.+2      	; 0x20e0 <_ZN16Adafruit_SSD13065beginEhhb+0x214>
    20de:	6f ec       	ldi	r22, 0xCF	; 207
    20e0:	ce 01       	movw	r24, r28
    20e2:	0e 94 24 0f 	call	0x1e48	; 0x1e48 <_ZN16Adafruit_SSD130615ssd1306_commandEh>
    20e6:	69 ed       	ldi	r22, 0xD9	; 217
    20e8:	ce 01       	movw	r24, r28
    20ea:	0e 94 24 0f 	call	0x1e48	; 0x1e48 <_ZN16Adafruit_SSD130615ssd1306_commandEh>
    20ee:	11 30       	cpi	r17, 0x01	; 1
    20f0:	11 f4       	brne	.+4      	; 0x20f6 <_ZN16Adafruit_SSD13065beginEhhb+0x22a>
    20f2:	62 e2       	ldi	r22, 0x22	; 34
    20f4:	01 c0       	rjmp	.+2      	; 0x20f8 <_ZN16Adafruit_SSD13065beginEhhb+0x22c>
    20f6:	61 ef       	ldi	r22, 0xF1	; 241
    20f8:	ce 01       	movw	r24, r28
    20fa:	0e 94 24 0f 	call	0x1e48	; 0x1e48 <_ZN16Adafruit_SSD130615ssd1306_commandEh>
    20fe:	6b ed       	ldi	r22, 0xDB	; 219
    2100:	ce 01       	movw	r24, r28
    2102:	0e 94 24 0f 	call	0x1e48	; 0x1e48 <_ZN16Adafruit_SSD130615ssd1306_commandEh>
    2106:	60 e4       	ldi	r22, 0x40	; 64
    2108:	ce 01       	movw	r24, r28
    210a:	0e 94 24 0f 	call	0x1e48	; 0x1e48 <_ZN16Adafruit_SSD130615ssd1306_commandEh>
    210e:	64 ea       	ldi	r22, 0xA4	; 164
    2110:	ce 01       	movw	r24, r28
    2112:	0e 94 24 0f 	call	0x1e48	; 0x1e48 <_ZN16Adafruit_SSD130615ssd1306_commandEh>
    2116:	66 ea       	ldi	r22, 0xA6	; 166
    2118:	ce 01       	movw	r24, r28
    211a:	0e 94 24 0f 	call	0x1e48	; 0x1e48 <_ZN16Adafruit_SSD130615ssd1306_commandEh>
    211e:	6e e2       	ldi	r22, 0x2E	; 46
    2120:	ce 01       	movw	r24, r28
    2122:	0e 94 24 0f 	call	0x1e48	; 0x1e48 <_ZN16Adafruit_SSD130615ssd1306_commandEh>
    2126:	6f ea       	ldi	r22, 0xAF	; 175
    2128:	ce 01       	movw	r24, r28
    212a:	df 91       	pop	r29
    212c:	cf 91       	pop	r28
    212e:	1f 91       	pop	r17
    2130:	0f 91       	pop	r16
    2132:	0c 94 24 0f 	jmp	0x1e48	; 0x1e48 <_ZN16Adafruit_SSD130615ssd1306_commandEh>

00002136 <_ZN16Adafruit_SSD13067displayEv>:
}

void Adafruit_SSD1306::display(void) {
    2136:	df 92       	push	r13
    2138:	ef 92       	push	r14
    213a:	ff 92       	push	r15
    213c:	0f 93       	push	r16
    213e:	1f 93       	push	r17
    2140:	cf 93       	push	r28
    2142:	df 93       	push	r29
    2144:	ec 01       	movw	r28, r24
  ssd1306_command(SSD1306_COLUMNADDR);
    2146:	61 e2       	ldi	r22, 0x21	; 33
    2148:	0e 94 24 0f 	call	0x1e48	; 0x1e48 <_ZN16Adafruit_SSD130615ssd1306_commandEh>
  ssd1306_command(0);   // Column start address (0 = reset)
    214c:	60 e0       	ldi	r22, 0x00	; 0
    214e:	ce 01       	movw	r24, r28
    2150:	0e 94 24 0f 	call	0x1e48	; 0x1e48 <_ZN16Adafruit_SSD130615ssd1306_commandEh>
  ssd1306_command(SSD1306_LCDWIDTH-1); // Column end address (127 = reset)
    2154:	6f e7       	ldi	r22, 0x7F	; 127
    2156:	ce 01       	movw	r24, r28
    2158:	0e 94 24 0f 	call	0x1e48	; 0x1e48 <_ZN16Adafruit_SSD130615ssd1306_commandEh>

  ssd1306_command(SSD1306_PAGEADDR);
    215c:	62 e2       	ldi	r22, 0x22	; 34
    215e:	ce 01       	movw	r24, r28
    2160:	0e 94 24 0f 	call	0x1e48	; 0x1e48 <_ZN16Adafruit_SSD130615ssd1306_commandEh>
  ssd1306_command(0); // Page start address (0 = reset)
    2164:	60 e0       	ldi	r22, 0x00	; 0
    2166:	ce 01       	movw	r24, r28
    2168:	0e 94 24 0f 	call	0x1e48	; 0x1e48 <_ZN16Adafruit_SSD130615ssd1306_commandEh>
  #if SSD1306_LCDHEIGHT == 64
    ssd1306_command(7); // Page end address
    216c:	67 e0       	ldi	r22, 0x07	; 7
    216e:	ce 01       	movw	r24, r28
    2170:	0e 94 24 0f 	call	0x1e48	; 0x1e48 <_ZN16Adafruit_SSD130615ssd1306_commandEh>
  #endif
  #if SSD1306_LCDHEIGHT == 16
    ssd1306_command(1); // Page end address
  #endif

  if (sid != -1)
    2174:	8c 8d       	ldd	r24, Y+28	; 0x1c
    2176:	8f 3f       	cpi	r24, 0xFF	; 255
    2178:	31 f1       	breq	.+76     	; 0x21c6 <_ZN16Adafruit_SSD13067displayEv+0x90>
  {
    // SPI
#ifdef HAVE_PORTREG
    *csport |= cspinmask;
    217a:	ee a1       	ldd	r30, Y+38	; 0x26
    217c:	ff a1       	ldd	r31, Y+39	; 0x27
    217e:	90 81       	ld	r25, Z
    2180:	8c a5       	ldd	r24, Y+44	; 0x2c
    2182:	89 2b       	or	r24, r25
    2184:	80 83       	st	Z, r24
    *dcport |= dcpinmask;
    2186:	e8 a5       	ldd	r30, Y+40	; 0x28
    2188:	f9 a5       	ldd	r31, Y+41	; 0x29
    218a:	90 81       	ld	r25, Z
    218c:	8d a5       	ldd	r24, Y+45	; 0x2d
    218e:	89 2b       	or	r24, r25
    2190:	80 83       	st	Z, r24
    *csport &= ~cspinmask;
    2192:	ee a1       	ldd	r30, Y+38	; 0x26
    2194:	ff a1       	ldd	r31, Y+39	; 0x27
    2196:	90 81       	ld	r25, Z
    2198:	8c a5       	ldd	r24, Y+44	; 0x2c
    219a:	80 95       	com	r24
    219c:	89 23       	and	r24, r25
    219e:	80 83       	st	Z, r24
    21a0:	06 e1       	ldi	r16, 0x16	; 22
    21a2:	11 e0       	ldi	r17, 0x01	; 1
    digitalWrite(dc, HIGH);
    digitalWrite(cs, LOW);
#endif

    for (uint16_t i=0; i<(SSD1306_LCDWIDTH*SSD1306_LCDHEIGHT/8); i++) {
      fastSPIwrite(buffer[i]);
    21a4:	f8 01       	movw	r30, r16
    21a6:	61 91       	ld	r22, Z+
    21a8:	8f 01       	movw	r16, r30
    21aa:	ce 01       	movw	r24, r28
    21ac:	0e 94 f7 0e 	call	0x1dee	; 0x1dee <_ZN16Adafruit_SSD130612fastSPIwriteEh>
    digitalWrite(cs, HIGH);
    digitalWrite(dc, HIGH);
    digitalWrite(cs, LOW);
#endif

    for (uint16_t i=0; i<(SSD1306_LCDWIDTH*SSD1306_LCDHEIGHT/8); i++) {
    21b0:	f5 e0       	ldi	r31, 0x05	; 5
    21b2:	06 31       	cpi	r16, 0x16	; 22
    21b4:	1f 07       	cpc	r17, r31
    21b6:	b1 f7       	brne	.-20     	; 0x21a4 <_ZN16Adafruit_SSD13067displayEv+0x6e>
      fastSPIwrite(buffer[i]);
    }
#ifdef HAVE_PORTREG
    *csport |= cspinmask;
    21b8:	ee a1       	ldd	r30, Y+38	; 0x26
    21ba:	ff a1       	ldd	r31, Y+39	; 0x27
    21bc:	90 81       	ld	r25, Z
    21be:	8c a5       	ldd	r24, Y+44	; 0x2c
    21c0:	89 2b       	or	r24, r25
    21c2:	80 83       	st	Z, r24
    21c4:	31 c0       	rjmp	.+98     	; 0x2228 <_ZN16Adafruit_SSD13067displayEv+0xf2>
  }
  else
  {
    // save I2C bitrate
#ifdef TWBR
    uint8_t twbrbackup = TWBR;
    21c6:	d0 90 b8 00 	lds	r13, 0x00B8	; 0x8000b8 <__TEXT_REGION_LENGTH__+0x7e00b8>
    TWBR = 12; // upgrade to 400KHz!
    21ca:	8c e0       	ldi	r24, 0x0C	; 12
    21cc:	80 93 b8 00 	sts	0x00B8, r24	; 0x8000b8 <__TEXT_REGION_LENGTH__+0x7e00b8>
    21d0:	06 e1       	ldi	r16, 0x16	; 22
    21d2:	11 e0       	ldi	r17, 0x01	; 1
    //Serial.println(TWSR & 0x3, DEC);

    // I2C
    for (uint16_t i=0; i<(SSD1306_LCDWIDTH*SSD1306_LCDHEIGHT/8); i++) {
      // send a bunch of data in one xmission
      Wire.beginTransmission(_i2caddr);
    21d4:	6a 8d       	ldd	r22, Y+26	; 0x1a
    21d6:	06 2e       	mov	r0, r22
    21d8:	00 0c       	add	r0, r0
    21da:	77 0b       	sbc	r23, r23
    21dc:	85 ec       	ldi	r24, 0xC5	; 197
    21de:	96 e0       	ldi	r25, 0x06	; 6
    21e0:	0e 94 da 13 	call	0x27b4	; 0x27b4 <_ZN7TwoWire17beginTransmissionEi>
    void onRequest( void (*)(void) );

    inline size_t write(unsigned long n) { return write((uint8_t)n); }
    inline size_t write(long n) { return write((uint8_t)n); }
    inline size_t write(unsigned int n) { return write((uint8_t)n); }
    inline size_t write(int n) { return write((uint8_t)n); }
    21e4:	60 e4       	ldi	r22, 0x40	; 64
    21e6:	85 ec       	ldi	r24, 0xC5	; 197
    21e8:	96 e0       	ldi	r25, 0x06	; 6
    21ea:	0e 94 87 13 	call	0x270e	; 0x270e <_ZN7TwoWire5writeEh>
    21ee:	e1 2c       	mov	r14, r1
    21f0:	f1 2c       	mov	r15, r1
    21f2:	f8 01       	movw	r30, r16
    21f4:	ee 0d       	add	r30, r14
    21f6:	ff 1d       	adc	r31, r15
      WIRE_WRITE(0x40);
      for (uint8_t x=0; x<16; x++) {
        WIRE_WRITE(buffer[i]);
    21f8:	60 81       	ld	r22, Z
    21fa:	85 ec       	ldi	r24, 0xC5	; 197
    21fc:	96 e0       	ldi	r25, 0x06	; 6
    21fe:	0e 94 87 13 	call	0x270e	; 0x270e <_ZN7TwoWire5writeEh>
    2202:	8f ef       	ldi	r24, 0xFF	; 255
    2204:	e8 1a       	sub	r14, r24
    2206:	f8 0a       	sbc	r15, r24
    // I2C
    for (uint16_t i=0; i<(SSD1306_LCDWIDTH*SSD1306_LCDHEIGHT/8); i++) {
      // send a bunch of data in one xmission
      Wire.beginTransmission(_i2caddr);
      WIRE_WRITE(0x40);
      for (uint8_t x=0; x<16; x++) {
    2208:	e0 e1       	ldi	r30, 0x10	; 16
    220a:	ee 16       	cp	r14, r30
    220c:	f1 04       	cpc	r15, r1
    220e:	89 f7       	brne	.-30     	; 0x21f2 <_ZN16Adafruit_SSD13067displayEv+0xbc>
        WIRE_WRITE(buffer[i]);
        i++;
      }
      i--;
      Wire.endTransmission();
    2210:	85 ec       	ldi	r24, 0xC5	; 197
    2212:	96 e0       	ldi	r25, 0x06	; 6
    2214:	0e 94 ef 13 	call	0x27de	; 0x27de <_ZN7TwoWire15endTransmissionEv>
    2218:	00 5f       	subi	r16, 0xF0	; 240
    221a:	1f 4f       	sbci	r17, 0xFF	; 255

    //Serial.println(TWBR, DEC);
    //Serial.println(TWSR & 0x3, DEC);

    // I2C
    for (uint16_t i=0; i<(SSD1306_LCDWIDTH*SSD1306_LCDHEIGHT/8); i++) {
    221c:	f5 e0       	ldi	r31, 0x05	; 5
    221e:	06 31       	cpi	r16, 0x16	; 22
    2220:	1f 07       	cpc	r17, r31
    2222:	c1 f6       	brne	.-80     	; 0x21d4 <_ZN16Adafruit_SSD13067displayEv+0x9e>
      }
      i--;
      Wire.endTransmission();
    }
#ifdef TWBR
    TWBR = twbrbackup;
    2224:	d0 92 b8 00 	sts	0x00B8, r13	; 0x8000b8 <__TEXT_REGION_LENGTH__+0x7e00b8>
#endif
  }
}
    2228:	df 91       	pop	r29
    222a:	cf 91       	pop	r28
    222c:	1f 91       	pop	r17
    222e:	0f 91       	pop	r16
    2230:	ff 90       	pop	r15
    2232:	ef 90       	pop	r14
    2234:	df 90       	pop	r13
    2236:	08 95       	ret

00002238 <_ZN8SPIClass5beginEv>:
#ifdef SPI_TRANSACTION_MISMATCH_LED
uint8_t SPIClass::inTransactionFlag = 0;
#endif

void SPIClass::begin()
{
    2238:	cf 93       	push	r28
  uint8_t sreg = SREG;
    223a:	cf b7       	in	r28, 0x3f	; 63
  noInterrupts(); // Protect from a scheduler and prevent transactionBegin
    223c:	f8 94       	cli
  if (!initialized) {
    223e:	80 91 56 06 	lds	r24, 0x0656	; 0x800656 <_ZN8SPIClass11initializedE>
    2242:	81 11       	cpse	r24, r1
    2244:	27 c0       	rjmp	.+78     	; 0x2294 <_ZN8SPIClass5beginEv+0x5c>
    // Set SS to high so a connected chip will be "deselected" by default
    uint8_t port = digitalPinToPort(SS);
    2246:	ea e9       	ldi	r30, 0x9A	; 154
    2248:	f5 e0       	ldi	r31, 0x05	; 5
    224a:	84 91       	lpm	r24, Z
    uint8_t bit = digitalPinToBitMask(SS);
    224c:	e6 e8       	ldi	r30, 0x86	; 134
    224e:	f5 e0       	ldi	r31, 0x05	; 5
    2250:	94 91       	lpm	r25, Z
    volatile uint8_t *reg = portModeRegister(port);
    2252:	e8 2f       	mov	r30, r24
    2254:	f0 e0       	ldi	r31, 0x00	; 0
    2256:	ee 0f       	add	r30, r30
    2258:	ff 1f       	adc	r31, r31
    225a:	e2 55       	subi	r30, 0x52	; 82
    225c:	fa 4f       	sbci	r31, 0xFA	; 250
    225e:	a5 91       	lpm	r26, Z+
    2260:	b4 91       	lpm	r27, Z

    // if the SS pin is not already configured as an output
    // then set it high (to enable the internal pull-up resistor)
    if(!(*reg & bit)){
    2262:	ec 91       	ld	r30, X
    2264:	e9 23       	and	r30, r25
    2266:	21 f4       	brne	.+8      	; 0x2270 <_ZN8SPIClass5beginEv+0x38>
      digitalWrite(SS, HIGH);
    2268:	61 e0       	ldi	r22, 0x01	; 1
    226a:	8a e0       	ldi	r24, 0x0A	; 10
    226c:	0e 94 6c 19 	call	0x32d8	; 0x32d8 <digitalWrite>
    }

    // When the SS pin is set as OUTPUT, it can be used as
    // a general purpose output port (it doesn't influence
    // SPI operations).
    pinMode(SS, OUTPUT);
    2270:	61 e0       	ldi	r22, 0x01	; 1
    2272:	8a e0       	ldi	r24, 0x0A	; 10
    2274:	0e 94 30 19 	call	0x3260	; 0x3260 <pinMode>

    // Warning: if the SS pin ever becomes a LOW INPUT then SPI
    // automatically switches to Slave, so the data direction of
    // the SS pin MUST be kept as OUTPUT.
    SPCR |= _BV(MSTR);
    2278:	8c b5       	in	r24, 0x2c	; 44
    227a:	80 61       	ori	r24, 0x10	; 16
    227c:	8c bd       	out	0x2c, r24	; 44
    SPCR |= _BV(SPE);
    227e:	8c b5       	in	r24, 0x2c	; 44
    2280:	80 64       	ori	r24, 0x40	; 64
    2282:	8c bd       	out	0x2c, r24	; 44
    // MISO pin automatically overrides to INPUT.
    // By doing this AFTER enabling SPI, we avoid accidentally
    // clocking in a single bit since the lines go directly
    // from "input" to SPI control.
    // http://code.google.com/p/arduino/issues/detail?id=888
    pinMode(SCK, OUTPUT);
    2284:	61 e0       	ldi	r22, 0x01	; 1
    2286:	8d e0       	ldi	r24, 0x0D	; 13
    2288:	0e 94 30 19 	call	0x3260	; 0x3260 <pinMode>
    pinMode(MOSI, OUTPUT);
    228c:	61 e0       	ldi	r22, 0x01	; 1
    228e:	8b e0       	ldi	r24, 0x0B	; 11
    2290:	0e 94 30 19 	call	0x3260	; 0x3260 <pinMode>
  }
  initialized++; // reference count
    2294:	80 91 56 06 	lds	r24, 0x0656	; 0x800656 <_ZN8SPIClass11initializedE>
    2298:	8f 5f       	subi	r24, 0xFF	; 255
    229a:	80 93 56 06 	sts	0x0656, r24	; 0x800656 <_ZN8SPIClass11initializedE>
  SREG = sreg;
    229e:	cf bf       	out	0x3f, r28	; 63
}
    22a0:	cf 91       	pop	r28
    22a2:	08 95       	ret

000022a4 <twi_init>:
{
  // transmit master read ready signal, with or without ack
  if(ack){
    TWCR = _BV(TWEN) | _BV(TWIE) | _BV(TWINT) | _BV(TWEA);
  }else{
	  TWCR = _BV(TWEN) | _BV(TWIE) | _BV(TWINT);
    22a4:	10 92 c4 06 	sts	0x06C4, r1	; 0x8006c4 <twi_state>
    22a8:	81 e0       	ldi	r24, 0x01	; 1
    22aa:	80 93 c2 06 	sts	0x06C2, r24	; 0x8006c2 <twi_sendStop>
    22ae:	10 92 c1 06 	sts	0x06C1, r1	; 0x8006c1 <twi_inRepStart>
    22b2:	61 e0       	ldi	r22, 0x01	; 1
    22b4:	82 e1       	ldi	r24, 0x12	; 18
    22b6:	0e 94 6c 19 	call	0x32d8	; 0x32d8 <digitalWrite>
    22ba:	61 e0       	ldi	r22, 0x01	; 1
    22bc:	83 e1       	ldi	r24, 0x13	; 19
    22be:	0e 94 6c 19 	call	0x32d8	; 0x32d8 <digitalWrite>
    22c2:	e9 eb       	ldi	r30, 0xB9	; 185
    22c4:	f0 e0       	ldi	r31, 0x00	; 0
    22c6:	80 81       	ld	r24, Z
    22c8:	8e 7f       	andi	r24, 0xFE	; 254
    22ca:	80 83       	st	Z, r24
    22cc:	80 81       	ld	r24, Z
    22ce:	8d 7f       	andi	r24, 0xFD	; 253
    22d0:	80 83       	st	Z, r24
    22d2:	88 e4       	ldi	r24, 0x48	; 72
    22d4:	80 93 b8 00 	sts	0x00B8, r24	; 0x8000b8 <__TEXT_REGION_LENGTH__+0x7e00b8>
    22d8:	85 e4       	ldi	r24, 0x45	; 69
    22da:	80 93 bc 00 	sts	0x00BC, r24	; 0x8000bc <__TEXT_REGION_LENGTH__+0x7e00bc>
    22de:	08 95       	ret

000022e0 <twi_writeTo>:
    22e0:	0f 93       	push	r16
    22e2:	41 32       	cpi	r20, 0x21	; 33
    22e4:	08 f0       	brcs	.+2      	; 0x22e8 <twi_writeTo+0x8>
    22e6:	4a c0       	rjmp	.+148    	; 0x237c <twi_writeTo+0x9c>
    22e8:	90 91 c4 06 	lds	r25, 0x06C4	; 0x8006c4 <twi_state>
    22ec:	91 11       	cpse	r25, r1
    22ee:	fc cf       	rjmp	.-8      	; 0x22e8 <twi_writeTo+0x8>
    22f0:	32 e0       	ldi	r19, 0x02	; 2
    22f2:	30 93 c4 06 	sts	0x06C4, r19	; 0x8006c4 <twi_state>
    22f6:	00 93 c2 06 	sts	0x06C2, r16	; 0x8006c2 <twi_sendStop>
    22fa:	3f ef       	ldi	r19, 0xFF	; 255
    22fc:	30 93 57 06 	sts	0x0657, r19	; 0x800657 <twi_error>
    2300:	10 92 9c 06 	sts	0x069C, r1	; 0x80069c <twi_masterBufferIndex>
    2304:	40 93 9b 06 	sts	0x069B, r20	; 0x80069b <twi_masterBufferLength>
    2308:	fb 01       	movw	r30, r22
    230a:	6d e9       	ldi	r22, 0x9D	; 157
    230c:	76 e0       	ldi	r23, 0x06	; 6
    230e:	db 01       	movw	r26, r22
    2310:	3a 2f       	mov	r19, r26
    2312:	36 1b       	sub	r19, r22
    2314:	34 17       	cp	r19, r20
    2316:	18 f4       	brcc	.+6      	; 0x231e <twi_writeTo+0x3e>
    2318:	31 91       	ld	r19, Z+
    231a:	3d 93       	st	X+, r19
    231c:	f9 cf       	rjmp	.-14     	; 0x2310 <twi_writeTo+0x30>
    231e:	10 92 c3 06 	sts	0x06C3, r1	; 0x8006c3 <twi_slarw>
    2322:	30 91 c3 06 	lds	r19, 0x06C3	; 0x8006c3 <twi_slarw>
    2326:	88 0f       	add	r24, r24
    2328:	83 2b       	or	r24, r19
    232a:	80 93 c3 06 	sts	0x06C3, r24	; 0x8006c3 <twi_slarw>
    232e:	80 91 c1 06 	lds	r24, 0x06C1	; 0x8006c1 <twi_inRepStart>
    2332:	81 30       	cpi	r24, 0x01	; 1
    2334:	61 f4       	brne	.+24     	; 0x234e <twi_writeTo+0x6e>
    2336:	10 92 c1 06 	sts	0x06C1, r1	; 0x8006c1 <twi_inRepStart>
    233a:	80 91 c3 06 	lds	r24, 0x06C3	; 0x8006c3 <twi_slarw>
    233e:	80 93 bb 00 	sts	0x00BB, r24	; 0x8000bb <__TEXT_REGION_LENGTH__+0x7e00bb>
    2342:	80 91 bc 00 	lds	r24, 0x00BC	; 0x8000bc <__TEXT_REGION_LENGTH__+0x7e00bc>
    2346:	83 fd       	sbrc	r24, 3
    2348:	f8 cf       	rjmp	.-16     	; 0x233a <twi_writeTo+0x5a>
    234a:	85 ec       	ldi	r24, 0xC5	; 197
    234c:	01 c0       	rjmp	.+2      	; 0x2350 <twi_writeTo+0x70>
    234e:	85 ee       	ldi	r24, 0xE5	; 229
    2350:	80 93 bc 00 	sts	0x00BC, r24	; 0x8000bc <__TEXT_REGION_LENGTH__+0x7e00bc>
    2354:	22 23       	and	r18, r18
    2356:	21 f0       	breq	.+8      	; 0x2360 <twi_writeTo+0x80>
    2358:	80 91 c4 06 	lds	r24, 0x06C4	; 0x8006c4 <twi_state>
    235c:	82 30       	cpi	r24, 0x02	; 2
    235e:	d1 f3       	breq	.-12     	; 0x2354 <twi_writeTo+0x74>
    2360:	80 91 57 06 	lds	r24, 0x0657	; 0x800657 <twi_error>
    2364:	8f 3f       	cpi	r24, 0xFF	; 255
    2366:	79 f0       	breq	.+30     	; 0x2386 <twi_writeTo+0xa6>
    2368:	80 91 57 06 	lds	r24, 0x0657	; 0x800657 <twi_error>
    236c:	80 32       	cpi	r24, 0x20	; 32
    236e:	41 f0       	breq	.+16     	; 0x2380 <twi_writeTo+0xa0>
    2370:	80 91 57 06 	lds	r24, 0x0657	; 0x800657 <twi_error>
    2374:	80 33       	cpi	r24, 0x30	; 48
    2376:	31 f0       	breq	.+12     	; 0x2384 <twi_writeTo+0xa4>
    2378:	94 e0       	ldi	r25, 0x04	; 4
    237a:	05 c0       	rjmp	.+10     	; 0x2386 <twi_writeTo+0xa6>
    237c:	91 e0       	ldi	r25, 0x01	; 1
    237e:	03 c0       	rjmp	.+6      	; 0x2386 <twi_writeTo+0xa6>
    2380:	92 e0       	ldi	r25, 0x02	; 2
    2382:	01 c0       	rjmp	.+2      	; 0x2386 <twi_writeTo+0xa6>
    2384:	93 e0       	ldi	r25, 0x03	; 3
    2386:	89 2f       	mov	r24, r25
    2388:	0f 91       	pop	r16
    238a:	08 95       	ret

0000238c <twi_transmit>:
    238c:	40 91 79 06 	lds	r20, 0x0679	; 0x800679 <twi_txBufferLength>
    2390:	26 2f       	mov	r18, r22
    2392:	30 e0       	ldi	r19, 0x00	; 0
    2394:	24 0f       	add	r18, r20
    2396:	31 1d       	adc	r19, r1
    2398:	21 32       	cpi	r18, 0x21	; 33
    239a:	31 05       	cpc	r19, r1
    239c:	dc f4       	brge	.+54     	; 0x23d4 <twi_transmit+0x48>
    239e:	20 91 c4 06 	lds	r18, 0x06C4	; 0x8006c4 <twi_state>
    23a2:	24 30       	cpi	r18, 0x04	; 4
    23a4:	c9 f4       	brne	.+50     	; 0x23d8 <twi_transmit+0x4c>
    23a6:	fc 01       	movw	r30, r24
    23a8:	80 e0       	ldi	r24, 0x00	; 0
    23aa:	90 e0       	ldi	r25, 0x00	; 0
    23ac:	86 17       	cp	r24, r22
    23ae:	58 f4       	brcc	.+22     	; 0x23c6 <twi_transmit+0x3a>
    23b0:	30 91 79 06 	lds	r19, 0x0679	; 0x800679 <twi_txBufferLength>
    23b4:	21 91       	ld	r18, Z+
    23b6:	dc 01       	movw	r26, r24
    23b8:	a5 58       	subi	r26, 0x85	; 133
    23ba:	b9 4f       	sbci	r27, 0xF9	; 249
    23bc:	a3 0f       	add	r26, r19
    23be:	b1 1d       	adc	r27, r1
    23c0:	2c 93       	st	X, r18
    23c2:	01 96       	adiw	r24, 0x01	; 1
    23c4:	f3 cf       	rjmp	.-26     	; 0x23ac <twi_transmit+0x20>
    23c6:	80 91 79 06 	lds	r24, 0x0679	; 0x800679 <twi_txBufferLength>
    23ca:	68 0f       	add	r22, r24
    23cc:	60 93 79 06 	sts	0x0679, r22	; 0x800679 <twi_txBufferLength>
    23d0:	80 e0       	ldi	r24, 0x00	; 0
    23d2:	08 95       	ret
    23d4:	81 e0       	ldi	r24, 0x01	; 1
    23d6:	08 95       	ret
    23d8:	82 e0       	ldi	r24, 0x02	; 2
    23da:	08 95       	ret

000023dc <twi_stop>:
 * Output   none
 */
void twi_stop(void)
{
  // send stop condition
  TWCR = _BV(TWEN) | _BV(TWIE) | _BV(TWEA) | _BV(TWINT) | _BV(TWSTO);
    23dc:	85 ed       	ldi	r24, 0xD5	; 213
    23de:	80 93 bc 00 	sts	0x00BC, r24	; 0x8000bc <__TEXT_REGION_LENGTH__+0x7e00bc>

  // wait for stop condition to be exectued on bus
  // TWINT is not set after a stop condition!
  while(TWCR & _BV(TWSTO)){
    23e2:	80 91 bc 00 	lds	r24, 0x00BC	; 0x8000bc <__TEXT_REGION_LENGTH__+0x7e00bc>
    23e6:	84 fd       	sbrc	r24, 4
    23e8:	fc cf       	rjmp	.-8      	; 0x23e2 <twi_stop+0x6>
    continue;
  }

  // update twi state
  twi_state = TWI_READY;
    23ea:	10 92 c4 06 	sts	0x06C4, r1	; 0x8006c4 <twi_state>
    23ee:	08 95       	ret

000023f0 <twi_releaseBus>:
 * Output   none
 */
void twi_releaseBus(void)
{
  // release bus
  TWCR = _BV(TWEN) | _BV(TWIE) | _BV(TWEA) | _BV(TWINT);
    23f0:	85 ec       	ldi	r24, 0xC5	; 197
    23f2:	80 93 bc 00 	sts	0x00BC, r24	; 0x8000bc <__TEXT_REGION_LENGTH__+0x7e00bc>

  // update twi state
  twi_state = TWI_READY;
    23f6:	10 92 c4 06 	sts	0x06C4, r1	; 0x8006c4 <twi_state>
    23fa:	08 95       	ret

000023fc <__vector_24>:
}

ISR(TWI_vect)
{
    23fc:	1f 92       	push	r1
    23fe:	0f 92       	push	r0
    2400:	0f b6       	in	r0, 0x3f	; 63
    2402:	0f 92       	push	r0
    2404:	11 24       	eor	r1, r1
    2406:	2f 93       	push	r18
    2408:	3f 93       	push	r19
    240a:	4f 93       	push	r20
    240c:	5f 93       	push	r21
    240e:	6f 93       	push	r22
    2410:	7f 93       	push	r23
    2412:	8f 93       	push	r24
    2414:	9f 93       	push	r25
    2416:	af 93       	push	r26
    2418:	bf 93       	push	r27
    241a:	ef 93       	push	r30
    241c:	ff 93       	push	r31
  switch(TW_STATUS){
    241e:	80 91 b9 00 	lds	r24, 0x00B9	; 0x8000b9 <__TEXT_REGION_LENGTH__+0x7e00b9>
    2422:	88 7f       	andi	r24, 0xF8	; 248
    2424:	80 36       	cpi	r24, 0x60	; 96
    2426:	09 f4       	brne	.+2      	; 0x242a <__vector_24+0x2e>
    2428:	9e c0       	rjmp	.+316    	; 0x2566 <__vector_24+0x16a>
    242a:	78 f5       	brcc	.+94     	; 0x248a <__vector_24+0x8e>
    242c:	88 32       	cpi	r24, 0x28	; 40
    242e:	09 f4       	brne	.+2      	; 0x2432 <__vector_24+0x36>
    2430:	5d c0       	rjmp	.+186    	; 0x24ec <__vector_24+0xf0>
    2432:	90 f4       	brcc	.+36     	; 0x2458 <__vector_24+0x5c>
    2434:	80 31       	cpi	r24, 0x10	; 16
    2436:	09 f4       	brne	.+2      	; 0x243a <__vector_24+0x3e>
    2438:	56 c0       	rjmp	.+172    	; 0x24e6 <__vector_24+0xea>
    243a:	38 f4       	brcc	.+14     	; 0x244a <__vector_24+0x4e>
    243c:	88 23       	and	r24, r24
    243e:	09 f4       	brne	.+2      	; 0x2442 <__vector_24+0x46>
    2440:	f5 c0       	rjmp	.+490    	; 0x262c <__vector_24+0x230>
    2442:	88 30       	cpi	r24, 0x08	; 8
    2444:	09 f4       	brne	.+2      	; 0x2448 <__vector_24+0x4c>
    2446:	4f c0       	rjmp	.+158    	; 0x24e6 <__vector_24+0xea>
    2448:	f5 c0       	rjmp	.+490    	; 0x2634 <__vector_24+0x238>
    244a:	88 31       	cpi	r24, 0x18	; 24
    244c:	09 f4       	brne	.+2      	; 0x2450 <__vector_24+0x54>
    244e:	4e c0       	rjmp	.+156    	; 0x24ec <__vector_24+0xf0>
    2450:	80 32       	cpi	r24, 0x20	; 32
    2452:	09 f4       	brne	.+2      	; 0x2456 <__vector_24+0x5a>
    2454:	5f c0       	rjmp	.+190    	; 0x2514 <__vector_24+0x118>
    2456:	ee c0       	rjmp	.+476    	; 0x2634 <__vector_24+0x238>
    2458:	80 34       	cpi	r24, 0x40	; 64
    245a:	09 f4       	brne	.+2      	; 0x245e <__vector_24+0x62>
    245c:	6a c0       	rjmp	.+212    	; 0x2532 <__vector_24+0x136>
    245e:	58 f4       	brcc	.+22     	; 0x2476 <__vector_24+0x7a>
    2460:	80 33       	cpi	r24, 0x30	; 48
    2462:	09 f4       	brne	.+2      	; 0x2466 <__vector_24+0x6a>
    2464:	57 c0       	rjmp	.+174    	; 0x2514 <__vector_24+0x118>
    2466:	88 33       	cpi	r24, 0x38	; 56
    2468:	09 f0       	breq	.+2      	; 0x246c <__vector_24+0x70>
    246a:	e4 c0       	rjmp	.+456    	; 0x2634 <__vector_24+0x238>
    case TW_MT_DATA_NACK: // data sent, nack received
      twi_error = TW_MT_DATA_NACK;
      twi_stop();
      break;
    case TW_MT_ARB_LOST: // lost bus arbitration
      twi_error = TW_MT_ARB_LOST;
    246c:	80 93 57 06 	sts	0x0657, r24	; 0x800657 <twi_error>
      twi_releaseBus();
    2470:	0e 94 f8 11 	call	0x23f0	; 0x23f0 <twi_releaseBus>
      break;
    2474:	df c0       	rjmp	.+446    	; 0x2634 <__vector_24+0x238>
  twi_state = TWI_READY;
}

ISR(TWI_vect)
{
  switch(TW_STATUS){
    2476:	80 35       	cpi	r24, 0x50	; 80
    2478:	09 f4       	brne	.+2      	; 0x247c <__vector_24+0x80>
    247a:	4f c0       	rjmp	.+158    	; 0x251a <__vector_24+0x11e>
    247c:	88 35       	cpi	r24, 0x58	; 88
    247e:	09 f4       	brne	.+2      	; 0x2482 <__vector_24+0x86>
    2480:	5d c0       	rjmp	.+186    	; 0x253c <__vector_24+0x140>
    2482:	88 34       	cpi	r24, 0x48	; 72
    2484:	09 f0       	breq	.+2      	; 0x2488 <__vector_24+0x8c>
    2486:	d6 c0       	rjmp	.+428    	; 0x2634 <__vector_24+0x238>
    2488:	d3 c0       	rjmp	.+422    	; 0x2630 <__vector_24+0x234>
    248a:	88 39       	cpi	r24, 0x98	; 152
    248c:	09 f4       	brne	.+2      	; 0x2490 <__vector_24+0x94>
    248e:	c4 c0       	rjmp	.+392    	; 0x2618 <__vector_24+0x21c>
    2490:	a8 f4       	brcc	.+42     	; 0x24bc <__vector_24+0xc0>
    2492:	88 37       	cpi	r24, 0x78	; 120
    2494:	09 f4       	brne	.+2      	; 0x2498 <__vector_24+0x9c>
    2496:	67 c0       	rjmp	.+206    	; 0x2566 <__vector_24+0x16a>
    2498:	38 f4       	brcc	.+14     	; 0x24a8 <__vector_24+0xac>
    249a:	88 36       	cpi	r24, 0x68	; 104
    249c:	09 f4       	brne	.+2      	; 0x24a0 <__vector_24+0xa4>
    249e:	63 c0       	rjmp	.+198    	; 0x2566 <__vector_24+0x16a>
    24a0:	80 37       	cpi	r24, 0x70	; 112
    24a2:	09 f4       	brne	.+2      	; 0x24a6 <__vector_24+0xaa>
    24a4:	60 c0       	rjmp	.+192    	; 0x2566 <__vector_24+0x16a>
    24a6:	c6 c0       	rjmp	.+396    	; 0x2634 <__vector_24+0x238>
    24a8:	88 38       	cpi	r24, 0x88	; 136
    24aa:	09 f4       	brne	.+2      	; 0x24ae <__vector_24+0xb2>
    24ac:	b5 c0       	rjmp	.+362    	; 0x2618 <__vector_24+0x21c>
    24ae:	80 39       	cpi	r24, 0x90	; 144
    24b0:	09 f4       	brne	.+2      	; 0x24b4 <__vector_24+0xb8>
    24b2:	5f c0       	rjmp	.+190    	; 0x2572 <__vector_24+0x176>
    24b4:	80 38       	cpi	r24, 0x80	; 128
    24b6:	09 f0       	breq	.+2      	; 0x24ba <__vector_24+0xbe>
    24b8:	bd c0       	rjmp	.+378    	; 0x2634 <__vector_24+0x238>
    24ba:	5b c0       	rjmp	.+182    	; 0x2572 <__vector_24+0x176>
    24bc:	80 3b       	cpi	r24, 0xB0	; 176
    24be:	09 f4       	brne	.+2      	; 0x24c2 <__vector_24+0xc6>
    24c0:	83 c0       	rjmp	.+262    	; 0x25c8 <__vector_24+0x1cc>
    24c2:	38 f4       	brcc	.+14     	; 0x24d2 <__vector_24+0xd6>
    24c4:	80 3a       	cpi	r24, 0xA0	; 160
    24c6:	09 f4       	brne	.+2      	; 0x24ca <__vector_24+0xce>
    24c8:	66 c0       	rjmp	.+204    	; 0x2596 <__vector_24+0x19a>
    24ca:	88 3a       	cpi	r24, 0xA8	; 168
    24cc:	09 f4       	brne	.+2      	; 0x24d0 <__vector_24+0xd4>
    24ce:	7c c0       	rjmp	.+248    	; 0x25c8 <__vector_24+0x1cc>
    24d0:	b1 c0       	rjmp	.+354    	; 0x2634 <__vector_24+0x238>
    24d2:	80 3c       	cpi	r24, 0xC0	; 192
    24d4:	09 f4       	brne	.+2      	; 0x24d8 <__vector_24+0xdc>
    24d6:	a4 c0       	rjmp	.+328    	; 0x2620 <__vector_24+0x224>
    24d8:	88 3c       	cpi	r24, 0xC8	; 200
    24da:	09 f4       	brne	.+2      	; 0x24de <__vector_24+0xe2>
    24dc:	a1 c0       	rjmp	.+322    	; 0x2620 <__vector_24+0x224>
    24de:	88 3b       	cpi	r24, 0xB8	; 184
    24e0:	09 f4       	brne	.+2      	; 0x24e4 <__vector_24+0xe8>
    24e2:	87 c0       	rjmp	.+270    	; 0x25f2 <__vector_24+0x1f6>
    24e4:	a7 c0       	rjmp	.+334    	; 0x2634 <__vector_24+0x238>
    // All Master
    case TW_START:     // sent start condition
    case TW_REP_START: // sent repeated start condition
      // copy device address and r/w bit to output register and ack
      TWDR = twi_slarw;
    24e6:	80 91 c3 06 	lds	r24, 0x06C3	; 0x8006c3 <twi_slarw>
    24ea:	10 c0       	rjmp	.+32     	; 0x250c <__vector_24+0x110>

    // Master Transmitter
    case TW_MT_SLA_ACK:  // slave receiver acked address
    case TW_MT_DATA_ACK: // slave receiver acked data
      // if there is data to send, send it, otherwise stop 
      if(twi_masterBufferIndex < twi_masterBufferLength){
    24ec:	90 91 9c 06 	lds	r25, 0x069C	; 0x80069c <twi_masterBufferIndex>
    24f0:	80 91 9b 06 	lds	r24, 0x069B	; 0x80069b <twi_masterBufferLength>
    24f4:	98 17       	cp	r25, r24
    24f6:	70 f5       	brcc	.+92     	; 0x2554 <__vector_24+0x158>
        // copy data to output register and ack
        TWDR = twi_masterBuffer[twi_masterBufferIndex++];
    24f8:	e0 91 9c 06 	lds	r30, 0x069C	; 0x80069c <twi_masterBufferIndex>
    24fc:	81 e0       	ldi	r24, 0x01	; 1
    24fe:	8e 0f       	add	r24, r30
    2500:	80 93 9c 06 	sts	0x069C, r24	; 0x80069c <twi_masterBufferIndex>
    2504:	f0 e0       	ldi	r31, 0x00	; 0
    2506:	e3 56       	subi	r30, 0x63	; 99
    2508:	f9 4f       	sbci	r31, 0xF9	; 249
    250a:	80 81       	ld	r24, Z
    250c:	80 93 bb 00 	sts	0x00BB, r24	; 0x8000bb <__TEXT_REGION_LENGTH__+0x7e00bb>
 */
void twi_reply(uint8_t ack)
{
  // transmit master read ready signal, with or without ack
  if(ack){
    TWCR = _BV(TWEN) | _BV(TWIE) | _BV(TWINT) | _BV(TWEA);
    2510:	85 ec       	ldi	r24, 0xC5	; 197
    2512:	83 c0       	rjmp	.+262    	; 0x261a <__vector_24+0x21e>
    case TW_MT_SLA_NACK:  // address sent, nack received
      twi_error = TW_MT_SLA_NACK;
      twi_stop();
      break;
    case TW_MT_DATA_NACK: // data sent, nack received
      twi_error = TW_MT_DATA_NACK;
    2514:	80 93 57 06 	sts	0x0657, r24	; 0x800657 <twi_error>
    2518:	8b c0       	rjmp	.+278    	; 0x2630 <__vector_24+0x234>
      break;

    // Master Receiver
    case TW_MR_DATA_ACK: // data received, ack sent
      // put byte into buffer
      twi_masterBuffer[twi_masterBufferIndex++] = TWDR;
    251a:	e0 91 9c 06 	lds	r30, 0x069C	; 0x80069c <twi_masterBufferIndex>
    251e:	81 e0       	ldi	r24, 0x01	; 1
    2520:	8e 0f       	add	r24, r30
    2522:	80 93 9c 06 	sts	0x069C, r24	; 0x80069c <twi_masterBufferIndex>
    2526:	80 91 bb 00 	lds	r24, 0x00BB	; 0x8000bb <__TEXT_REGION_LENGTH__+0x7e00bb>
    252a:	f0 e0       	ldi	r31, 0x00	; 0
    252c:	e3 56       	subi	r30, 0x63	; 99
    252e:	f9 4f       	sbci	r31, 0xF9	; 249
    2530:	80 83       	st	Z, r24
    case TW_MR_SLA_ACK:  // address sent, ack received
      // ack if more bytes are expected, otherwise nack
      if(twi_masterBufferIndex < twi_masterBufferLength){
    2532:	90 91 9c 06 	lds	r25, 0x069C	; 0x80069c <twi_masterBufferIndex>
    2536:	80 91 9b 06 	lds	r24, 0x069B	; 0x80069b <twi_masterBufferLength>
    253a:	6b c0       	rjmp	.+214    	; 0x2612 <__vector_24+0x216>
        twi_reply(0);
      }
      break;
    case TW_MR_DATA_NACK: // data received, nack sent
      // put final byte into buffer
      twi_masterBuffer[twi_masterBufferIndex++] = TWDR;
    253c:	e0 91 9c 06 	lds	r30, 0x069C	; 0x80069c <twi_masterBufferIndex>
    2540:	81 e0       	ldi	r24, 0x01	; 1
    2542:	8e 0f       	add	r24, r30
    2544:	80 93 9c 06 	sts	0x069C, r24	; 0x80069c <twi_masterBufferIndex>
    2548:	80 91 bb 00 	lds	r24, 0x00BB	; 0x8000bb <__TEXT_REGION_LENGTH__+0x7e00bb>
    254c:	f0 e0       	ldi	r31, 0x00	; 0
    254e:	e3 56       	subi	r30, 0x63	; 99
    2550:	f9 4f       	sbci	r31, 0xF9	; 249
    2552:	80 83       	st	Z, r24
	if (twi_sendStop)
    2554:	80 91 c2 06 	lds	r24, 0x06C2	; 0x8006c2 <twi_sendStop>
    2558:	81 11       	cpse	r24, r1
    255a:	6a c0       	rjmp	.+212    	; 0x2630 <__vector_24+0x234>
          twi_stop();
	else {
	  twi_inRepStart = true;	// we're gonna send the START
    255c:	81 e0       	ldi	r24, 0x01	; 1
    255e:	80 93 c1 06 	sts	0x06C1, r24	; 0x8006c1 <twi_inRepStart>
	  // don't enable the interrupt. We'll generate the start, but we 
	  // avoid handling the interrupt until we're in the next transaction,
	  // at the point where we would normally issue the start.
	  TWCR = _BV(TWINT) | _BV(TWSTA)| _BV(TWEN) ;
    2562:	84 ea       	ldi	r24, 0xA4	; 164
    2564:	5e c0       	rjmp	.+188    	; 0x2622 <__vector_24+0x226>
    case TW_SR_SLA_ACK:   // addressed, returned ack
    case TW_SR_GCALL_ACK: // addressed generally, returned ack
    case TW_SR_ARB_LOST_SLA_ACK:   // lost arbitration, returned ack
    case TW_SR_ARB_LOST_GCALL_ACK: // lost arbitration, returned ack
      // enter slave receiver mode
      twi_state = TWI_SRX;
    2566:	83 e0       	ldi	r24, 0x03	; 3
    2568:	80 93 c4 06 	sts	0x06C4, r24	; 0x8006c4 <twi_state>
      // indicate that rx buffer can be overwritten and ack
      twi_rxBufferIndex = 0;
    256c:	10 92 58 06 	sts	0x0658, r1	; 0x800658 <twi_rxBufferIndex>
    2570:	cf cf       	rjmp	.-98     	; 0x2510 <__vector_24+0x114>
      twi_reply(1);
      break;
    case TW_SR_DATA_ACK:       // data received, returned ack
    case TW_SR_GCALL_DATA_ACK: // data received generally, returned ack
      // if there is still room in the rx buffer
      if(twi_rxBufferIndex < TWI_BUFFER_LENGTH){
    2572:	80 91 58 06 	lds	r24, 0x0658	; 0x800658 <twi_rxBufferIndex>
    2576:	80 32       	cpi	r24, 0x20	; 32
    2578:	08 f0       	brcs	.+2      	; 0x257c <__vector_24+0x180>
    257a:	4e c0       	rjmp	.+156    	; 0x2618 <__vector_24+0x21c>
        // put byte in buffer and ack
        twi_rxBuffer[twi_rxBufferIndex++] = TWDR;
    257c:	e0 91 58 06 	lds	r30, 0x0658	; 0x800658 <twi_rxBufferIndex>
    2580:	81 e0       	ldi	r24, 0x01	; 1
    2582:	8e 0f       	add	r24, r30
    2584:	80 93 58 06 	sts	0x0658, r24	; 0x800658 <twi_rxBufferIndex>
    2588:	80 91 bb 00 	lds	r24, 0x00BB	; 0x8000bb <__TEXT_REGION_LENGTH__+0x7e00bb>
    258c:	f0 e0       	ldi	r31, 0x00	; 0
    258e:	e7 5a       	subi	r30, 0xA7	; 167
    2590:	f9 4f       	sbci	r31, 0xF9	; 249
    2592:	80 83       	st	Z, r24
    2594:	bd cf       	rjmp	.-134    	; 0x2510 <__vector_24+0x114>
        twi_reply(0);
      }
      break;
    case TW_SR_STOP: // stop or repeated start condition received
      // ack future responses and leave slave receiver state
      twi_releaseBus();
    2596:	0e 94 f8 11 	call	0x23f0	; 0x23f0 <twi_releaseBus>
      // put a null char after data if there's room
      if(twi_rxBufferIndex < TWI_BUFFER_LENGTH){
    259a:	80 91 58 06 	lds	r24, 0x0658	; 0x800658 <twi_rxBufferIndex>
    259e:	80 32       	cpi	r24, 0x20	; 32
    25a0:	30 f4       	brcc	.+12     	; 0x25ae <__vector_24+0x1b2>
        twi_rxBuffer[twi_rxBufferIndex] = '\0';
    25a2:	e0 91 58 06 	lds	r30, 0x0658	; 0x800658 <twi_rxBufferIndex>
    25a6:	f0 e0       	ldi	r31, 0x00	; 0
    25a8:	e7 5a       	subi	r30, 0xA7	; 167
    25aa:	f9 4f       	sbci	r31, 0xF9	; 249
    25ac:	10 82       	st	Z, r1
      }
      // callback to user defined callback
      twi_onSlaveReceive(twi_rxBuffer, twi_rxBufferIndex);
    25ae:	60 91 58 06 	lds	r22, 0x0658	; 0x800658 <twi_rxBufferIndex>
    25b2:	70 e0       	ldi	r23, 0x00	; 0
    25b4:	e0 91 bd 06 	lds	r30, 0x06BD	; 0x8006bd <twi_onSlaveReceive>
    25b8:	f0 91 be 06 	lds	r31, 0x06BE	; 0x8006be <twi_onSlaveReceive+0x1>
    25bc:	89 e5       	ldi	r24, 0x59	; 89
    25be:	96 e0       	ldi	r25, 0x06	; 6
    25c0:	09 95       	icall
      // since we submit rx buffer to "wire" library, we can reset it
      twi_rxBufferIndex = 0;
    25c2:	10 92 58 06 	sts	0x0658, r1	; 0x800658 <twi_rxBufferIndex>
      break;
    25c6:	36 c0       	rjmp	.+108    	; 0x2634 <__vector_24+0x238>
    
    // Slave Transmitter
    case TW_ST_SLA_ACK:          // addressed, returned ack
    case TW_ST_ARB_LOST_SLA_ACK: // arbitration lost, returned ack
      // enter slave transmitter mode
      twi_state = TWI_STX;
    25c8:	84 e0       	ldi	r24, 0x04	; 4
    25ca:	80 93 c4 06 	sts	0x06C4, r24	; 0x8006c4 <twi_state>
      // ready the tx buffer index for iteration
      twi_txBufferIndex = 0;
    25ce:	10 92 7a 06 	sts	0x067A, r1	; 0x80067a <twi_txBufferIndex>
      // set tx buffer length to be zero, to verify if user changes it
      twi_txBufferLength = 0;
    25d2:	10 92 79 06 	sts	0x0679, r1	; 0x800679 <twi_txBufferLength>
      // request for txBuffer to be filled and length to be set
      // note: user must call twi_transmit(bytes, length) to do this
      twi_onSlaveTransmit();
    25d6:	e0 91 bf 06 	lds	r30, 0x06BF	; 0x8006bf <twi_onSlaveTransmit>
    25da:	f0 91 c0 06 	lds	r31, 0x06C0	; 0x8006c0 <twi_onSlaveTransmit+0x1>
    25de:	09 95       	icall
      // if they didn't change buffer & length, initialize it
      if(0 == twi_txBufferLength){
    25e0:	80 91 79 06 	lds	r24, 0x0679	; 0x800679 <twi_txBufferLength>
    25e4:	81 11       	cpse	r24, r1
    25e6:	05 c0       	rjmp	.+10     	; 0x25f2 <__vector_24+0x1f6>
        twi_txBufferLength = 1;
    25e8:	81 e0       	ldi	r24, 0x01	; 1
    25ea:	80 93 79 06 	sts	0x0679, r24	; 0x800679 <twi_txBufferLength>
        twi_txBuffer[0] = 0x00;
    25ee:	10 92 7b 06 	sts	0x067B, r1	; 0x80067b <twi_txBuffer>
      }
      // transmit first byte from buffer, fall
    case TW_ST_DATA_ACK: // byte sent, ack returned
      // copy data to output register
      TWDR = twi_txBuffer[twi_txBufferIndex++];
    25f2:	e0 91 7a 06 	lds	r30, 0x067A	; 0x80067a <twi_txBufferIndex>
    25f6:	81 e0       	ldi	r24, 0x01	; 1
    25f8:	8e 0f       	add	r24, r30
    25fa:	80 93 7a 06 	sts	0x067A, r24	; 0x80067a <twi_txBufferIndex>
    25fe:	f0 e0       	ldi	r31, 0x00	; 0
    2600:	e5 58       	subi	r30, 0x85	; 133
    2602:	f9 4f       	sbci	r31, 0xF9	; 249
    2604:	80 81       	ld	r24, Z
    2606:	80 93 bb 00 	sts	0x00BB, r24	; 0x8000bb <__TEXT_REGION_LENGTH__+0x7e00bb>
      // if there is more to send, ack, otherwise nack
      if(twi_txBufferIndex < twi_txBufferLength){
    260a:	90 91 7a 06 	lds	r25, 0x067A	; 0x80067a <twi_txBufferIndex>
    260e:	80 91 79 06 	lds	r24, 0x0679	; 0x800679 <twi_txBufferLength>
    2612:	98 17       	cp	r25, r24
    2614:	08 f4       	brcc	.+2      	; 0x2618 <__vector_24+0x21c>
    2616:	7c cf       	rjmp	.-264    	; 0x2510 <__vector_24+0x114>
{
  // transmit master read ready signal, with or without ack
  if(ack){
    TWCR = _BV(TWEN) | _BV(TWIE) | _BV(TWINT) | _BV(TWEA);
  }else{
	  TWCR = _BV(TWEN) | _BV(TWIE) | _BV(TWINT);
    2618:	85 e8       	ldi	r24, 0x85	; 133
    261a:	80 93 bc 00 	sts	0x00BC, r24	; 0x8000bc <__TEXT_REGION_LENGTH__+0x7e00bc>
    261e:	0a c0       	rjmp	.+20     	; 0x2634 <__vector_24+0x238>
 */
void twi_reply(uint8_t ack)
{
  // transmit master read ready signal, with or without ack
  if(ack){
    TWCR = _BV(TWEN) | _BV(TWIE) | _BV(TWINT) | _BV(TWEA);
    2620:	85 ec       	ldi	r24, 0xC5	; 197
    2622:	80 93 bc 00 	sts	0x00BC, r24	; 0x8000bc <__TEXT_REGION_LENGTH__+0x7e00bc>
    case TW_ST_DATA_NACK: // received nack, we are done 
    case TW_ST_LAST_DATA: // received ack, but we are done already!
      // ack future responses
      twi_reply(1);
      // leave slave receiver state
      twi_state = TWI_READY;
    2626:	10 92 c4 06 	sts	0x06C4, r1	; 0x8006c4 <twi_state>
      break;
    262a:	04 c0       	rjmp	.+8      	; 0x2634 <__vector_24+0x238>

    // All
    case TW_NO_INFO:   // no state information
      break;
    case TW_BUS_ERROR: // bus error, illegal stop/start
      twi_error = TW_BUS_ERROR;
    262c:	10 92 57 06 	sts	0x0657, r1	; 0x800657 <twi_error>
      twi_stop();
    2630:	0e 94 ee 11 	call	0x23dc	; 0x23dc <twi_stop>
      break;
  }
}
    2634:	ff 91       	pop	r31
    2636:	ef 91       	pop	r30
    2638:	bf 91       	pop	r27
    263a:	af 91       	pop	r26
    263c:	9f 91       	pop	r25
    263e:	8f 91       	pop	r24
    2640:	7f 91       	pop	r23
    2642:	6f 91       	pop	r22
    2644:	5f 91       	pop	r21
    2646:	4f 91       	pop	r20
    2648:	3f 91       	pop	r19
    264a:	2f 91       	pop	r18
    264c:	0f 90       	pop	r0
    264e:	0f be       	out	0x3f, r0	; 63
    2650:	0f 90       	pop	r0
    2652:	1f 90       	pop	r1
    2654:	18 95       	reti

00002656 <_ZN7TwoWire9availableEv>:
}

// sets function called on slave read
void TwoWire::onRequest( void (*function)(void) )
{
  user_onRequest = function;
    2656:	80 91 f5 06 	lds	r24, 0x06F5	; 0x8006f5 <_ZN7TwoWire14rxBufferLengthE>
    265a:	90 e0       	ldi	r25, 0x00	; 0
    265c:	20 91 f6 06 	lds	r18, 0x06F6	; 0x8006f6 <_ZN7TwoWire13rxBufferIndexE>
    2660:	82 1b       	sub	r24, r18
    2662:	91 09       	sbc	r25, r1
    2664:	08 95       	ret

00002666 <_ZN7TwoWire4readEv>:
    2666:	90 91 f6 06 	lds	r25, 0x06F6	; 0x8006f6 <_ZN7TwoWire13rxBufferIndexE>
    266a:	80 91 f5 06 	lds	r24, 0x06F5	; 0x8006f5 <_ZN7TwoWire14rxBufferLengthE>
    266e:	98 17       	cp	r25, r24
    2670:	50 f4       	brcc	.+20     	; 0x2686 <_ZN7TwoWire4readEv+0x20>
    2672:	e9 2f       	mov	r30, r25
    2674:	f0 e0       	ldi	r31, 0x00	; 0
    2676:	e9 50       	subi	r30, 0x09	; 9
    2678:	f9 4f       	sbci	r31, 0xF9	; 249
    267a:	20 81       	ld	r18, Z
    267c:	30 e0       	ldi	r19, 0x00	; 0
    267e:	9f 5f       	subi	r25, 0xFF	; 255
    2680:	90 93 f6 06 	sts	0x06F6, r25	; 0x8006f6 <_ZN7TwoWire13rxBufferIndexE>
    2684:	02 c0       	rjmp	.+4      	; 0x268a <_ZN7TwoWire4readEv+0x24>
    2686:	2f ef       	ldi	r18, 0xFF	; 255
    2688:	3f ef       	ldi	r19, 0xFF	; 255
    268a:	c9 01       	movw	r24, r18
    268c:	08 95       	ret

0000268e <_ZN7TwoWire4peekEv>:
    268e:	e0 91 f6 06 	lds	r30, 0x06F6	; 0x8006f6 <_ZN7TwoWire13rxBufferIndexE>
    2692:	80 91 f5 06 	lds	r24, 0x06F5	; 0x8006f5 <_ZN7TwoWire14rxBufferLengthE>
    2696:	e8 17       	cp	r30, r24
    2698:	30 f4       	brcc	.+12     	; 0x26a6 <_ZN7TwoWire4peekEv+0x18>
    269a:	f0 e0       	ldi	r31, 0x00	; 0
    269c:	e9 50       	subi	r30, 0x09	; 9
    269e:	f9 4f       	sbci	r31, 0xF9	; 249
    26a0:	80 81       	ld	r24, Z
    26a2:	90 e0       	ldi	r25, 0x00	; 0
    26a4:	08 95       	ret
    26a6:	8f ef       	ldi	r24, 0xFF	; 255
    26a8:	9f ef       	ldi	r25, 0xFF	; 255
    26aa:	08 95       	ret

000026ac <_ZN7TwoWire5flushEv>:
    26ac:	08 95       	ret

000026ae <_ZN7TwoWire5writeEPKhj>:
    26ae:	cf 92       	push	r12
    26b0:	df 92       	push	r13
    26b2:	ef 92       	push	r14
    26b4:	ff 92       	push	r15
    26b6:	0f 93       	push	r16
    26b8:	1f 93       	push	r17
    26ba:	cf 93       	push	r28
    26bc:	df 93       	push	r29
    26be:	7c 01       	movw	r14, r24
    26c0:	26 2f       	mov	r18, r22
    26c2:	97 2f       	mov	r25, r23
    26c4:	8a 01       	movw	r16, r20
    26c6:	80 91 d1 06 	lds	r24, 0x06D1	; 0x8006d1 <_ZN7TwoWire12transmittingE>
    26ca:	88 23       	and	r24, r24
    26cc:	91 f0       	breq	.+36     	; 0x26f2 <_ZN7TwoWire5writeEPKhj+0x44>
    26ce:	c6 2f       	mov	r28, r22
    26d0:	d7 2f       	mov	r29, r23
    26d2:	6e 01       	movw	r12, r28
    26d4:	c4 0e       	add	r12, r20
    26d6:	d5 1e       	adc	r13, r21
    26d8:	cc 15       	cp	r28, r12
    26da:	dd 05       	cpc	r29, r13
    26dc:	71 f0       	breq	.+28     	; 0x26fa <_ZN7TwoWire5writeEPKhj+0x4c>
    26de:	69 91       	ld	r22, Y+
    26e0:	d7 01       	movw	r26, r14
    26e2:	ed 91       	ld	r30, X+
    26e4:	fc 91       	ld	r31, X
    26e6:	01 90       	ld	r0, Z+
    26e8:	f0 81       	ld	r31, Z
    26ea:	e0 2d       	mov	r30, r0
    26ec:	c7 01       	movw	r24, r14
    26ee:	09 95       	icall
    26f0:	f3 cf       	rjmp	.-26     	; 0x26d8 <_ZN7TwoWire5writeEPKhj+0x2a>
    26f2:	64 2f       	mov	r22, r20
    26f4:	82 2f       	mov	r24, r18
    26f6:	0e 94 c6 11 	call	0x238c	; 0x238c <twi_transmit>
    26fa:	c8 01       	movw	r24, r16
    26fc:	df 91       	pop	r29
    26fe:	cf 91       	pop	r28
    2700:	1f 91       	pop	r17
    2702:	0f 91       	pop	r16
    2704:	ff 90       	pop	r15
    2706:	ef 90       	pop	r14
    2708:	df 90       	pop	r13
    270a:	cf 90       	pop	r12
    270c:	08 95       	ret

0000270e <_ZN7TwoWire5writeEh>:
    270e:	cf 93       	push	r28
    2710:	df 93       	push	r29
    2712:	1f 92       	push	r1
    2714:	cd b7       	in	r28, 0x3d	; 61
    2716:	de b7       	in	r29, 0x3e	; 62
    2718:	69 83       	std	Y+1, r22	; 0x01
    271a:	20 91 d1 06 	lds	r18, 0x06D1	; 0x8006d1 <_ZN7TwoWire12transmittingE>
    271e:	22 23       	and	r18, r18
    2720:	d1 f0       	breq	.+52     	; 0x2756 <_ZN7TwoWire5writeEh+0x48>
    2722:	20 91 d2 06 	lds	r18, 0x06D2	; 0x8006d2 <_ZN7TwoWire14txBufferLengthE>
    2726:	20 32       	cpi	r18, 0x20	; 32
    2728:	40 f0       	brcs	.+16     	; 0x273a <_ZN7TwoWire5writeEh+0x2c>
    272a:	21 e0       	ldi	r18, 0x01	; 1
    272c:	30 e0       	ldi	r19, 0x00	; 0
    272e:	fc 01       	movw	r30, r24
    2730:	33 83       	std	Z+3, r19	; 0x03
    2732:	22 83       	std	Z+2, r18	; 0x02
    2734:	80 e0       	ldi	r24, 0x00	; 0
    2736:	90 e0       	ldi	r25, 0x00	; 0
    2738:	15 c0       	rjmp	.+42     	; 0x2764 <_ZN7TwoWire5writeEh+0x56>
    273a:	80 91 d3 06 	lds	r24, 0x06D3	; 0x8006d3 <_ZN7TwoWire13txBufferIndexE>
    273e:	e8 2f       	mov	r30, r24
    2740:	f0 e0       	ldi	r31, 0x00	; 0
    2742:	ec 52       	subi	r30, 0x2C	; 44
    2744:	f9 4f       	sbci	r31, 0xF9	; 249
    2746:	99 81       	ldd	r25, Y+1	; 0x01
    2748:	90 83       	st	Z, r25
    274a:	8f 5f       	subi	r24, 0xFF	; 255
    274c:	80 93 d3 06 	sts	0x06D3, r24	; 0x8006d3 <_ZN7TwoWire13txBufferIndexE>
    2750:	80 93 d2 06 	sts	0x06D2, r24	; 0x8006d2 <_ZN7TwoWire14txBufferLengthE>
    2754:	05 c0       	rjmp	.+10     	; 0x2760 <_ZN7TwoWire5writeEh+0x52>
    2756:	61 e0       	ldi	r22, 0x01	; 1
    2758:	ce 01       	movw	r24, r28
    275a:	01 96       	adiw	r24, 0x01	; 1
    275c:	0e 94 c6 11 	call	0x238c	; 0x238c <twi_transmit>
    2760:	81 e0       	ldi	r24, 0x01	; 1
    2762:	90 e0       	ldi	r25, 0x00	; 0
    2764:	0f 90       	pop	r0
    2766:	df 91       	pop	r29
    2768:	cf 91       	pop	r28
    276a:	08 95       	ret

0000276c <_ZN7TwoWireC1Ev>:
    276c:	fc 01       	movw	r30, r24
    276e:	13 82       	std	Z+3, r1	; 0x03
    2770:	12 82       	std	Z+2, r1	; 0x02
    2772:	88 ee       	ldi	r24, 0xE8	; 232
    2774:	93 e0       	ldi	r25, 0x03	; 3
    2776:	a0 e0       	ldi	r26, 0x00	; 0
    2778:	b0 e0       	ldi	r27, 0x00	; 0
    277a:	84 83       	std	Z+4, r24	; 0x04
    277c:	95 83       	std	Z+5, r25	; 0x05
    277e:	a6 83       	std	Z+6, r26	; 0x06
    2780:	b7 83       	std	Z+7, r27	; 0x07
    2782:	8e ea       	ldi	r24, 0xAE	; 174
    2784:	95 e0       	ldi	r25, 0x05	; 5
    2786:	91 83       	std	Z+1, r25	; 0x01
    2788:	80 83       	st	Z, r24
    278a:	08 95       	ret

0000278c <_ZN7TwoWire5beginEv>:
    278c:	10 92 f6 06 	sts	0x06F6, r1	; 0x8006f6 <_ZN7TwoWire13rxBufferIndexE>
    2790:	10 92 f5 06 	sts	0x06F5, r1	; 0x8006f5 <_ZN7TwoWire14rxBufferLengthE>
    2794:	10 92 d3 06 	sts	0x06D3, r1	; 0x8006d3 <_ZN7TwoWire13txBufferIndexE>
    2798:	10 92 d2 06 	sts	0x06D2, r1	; 0x8006d2 <_ZN7TwoWire14txBufferLengthE>
    279c:	0c 94 52 11 	jmp	0x22a4	; 0x22a4 <twi_init>

000027a0 <_ZN7TwoWire17beginTransmissionEh>:
    27a0:	81 e0       	ldi	r24, 0x01	; 1
    27a2:	80 93 d1 06 	sts	0x06D1, r24	; 0x8006d1 <_ZN7TwoWire12transmittingE>
    27a6:	60 93 f4 06 	sts	0x06F4, r22	; 0x8006f4 <_ZN7TwoWire9txAddressE>
    27aa:	10 92 d3 06 	sts	0x06D3, r1	; 0x8006d3 <_ZN7TwoWire13txBufferIndexE>
    27ae:	10 92 d2 06 	sts	0x06D2, r1	; 0x8006d2 <_ZN7TwoWire14txBufferLengthE>
    27b2:	08 95       	ret

000027b4 <_ZN7TwoWire17beginTransmissionEi>:
    27b4:	0c 94 d0 13 	jmp	0x27a0	; 0x27a0 <_ZN7TwoWire17beginTransmissionEh>

000027b8 <_ZN7TwoWire15endTransmissionEh>:
    27b8:	0f 93       	push	r16
    27ba:	06 2f       	mov	r16, r22
    27bc:	21 e0       	ldi	r18, 0x01	; 1
    27be:	40 91 d2 06 	lds	r20, 0x06D2	; 0x8006d2 <_ZN7TwoWire14txBufferLengthE>
    27c2:	64 ed       	ldi	r22, 0xD4	; 212
    27c4:	76 e0       	ldi	r23, 0x06	; 6
    27c6:	80 91 f4 06 	lds	r24, 0x06F4	; 0x8006f4 <_ZN7TwoWire9txAddressE>
    27ca:	0e 94 70 11 	call	0x22e0	; 0x22e0 <twi_writeTo>
    27ce:	10 92 d3 06 	sts	0x06D3, r1	; 0x8006d3 <_ZN7TwoWire13txBufferIndexE>
    27d2:	10 92 d2 06 	sts	0x06D2, r1	; 0x8006d2 <_ZN7TwoWire14txBufferLengthE>
    27d6:	10 92 d1 06 	sts	0x06D1, r1	; 0x8006d1 <_ZN7TwoWire12transmittingE>
    27da:	0f 91       	pop	r16
    27dc:	08 95       	ret

000027de <_ZN7TwoWire15endTransmissionEv>:
    27de:	61 e0       	ldi	r22, 0x01	; 1
    27e0:	0c 94 dc 13 	jmp	0x27b8	; 0x27b8 <_ZN7TwoWire15endTransmissionEh>

000027e4 <_GLOBAL__sub_I__ZN7TwoWire8rxBufferE>:
}

// Preinstantiate Objects //////////////////////////////////////////////////////

TwoWire Wire = TwoWire();
    27e4:	85 ec       	ldi	r24, 0xC5	; 197
    27e6:	96 e0       	ldi	r25, 0x06	; 6
    27e8:	0c 94 b6 13 	jmp	0x276c	; 0x276c <_ZN7TwoWireC1Ev>

000027ec <_ZL7nothingv>:
int Timer1::calculate(int _prescaler,int _time)
{
	int _OCR1A = _time*(F_CPU/1000)/_prescaler;
	oc = _OCR1A;
	return _OCR1A;
}
    27ec:	08 95       	ret

000027ee <_ZN6Timer116select_prescalerEi>:

int Timer1::select_prescaler(int _time)
{
    27ee:	4f 92       	push	r4
    27f0:	5f 92       	push	r5
    27f2:	6f 92       	push	r6
    27f4:	7f 92       	push	r7
    27f6:	af 92       	push	r10
    27f8:	bf 92       	push	r11
    27fa:	cf 92       	push	r12
    27fc:	df 92       	push	r13
    27fe:	ef 92       	push	r14
    2800:	ff 92       	push	r15
    2802:	0f 93       	push	r16
    2804:	1f 93       	push	r17
    2806:	cf 93       	push	r28
    2808:	df 93       	push	r29
    280a:	cd b7       	in	r28, 0x3d	; 61
    280c:	de b7       	in	r29, 0x3e	; 62
    280e:	2a 97       	sbiw	r28, 0x0a	; 10
    2810:	0f b6       	in	r0, 0x3f	; 63
    2812:	f8 94       	cli
    2814:	de bf       	out	0x3e, r29	; 62
    2816:	0f be       	out	0x3f, r0	; 63
    2818:	cd bf       	out	0x3d, r28	; 61
    281a:	7c 01       	movw	r14, r24
    281c:	5b 01       	movw	r10, r22
	int _prescaler_table[5] = {1,8,64,256,1024};
    281e:	8a e0       	ldi	r24, 0x0A	; 10
    2820:	e8 e1       	ldi	r30, 0x18	; 24
    2822:	f5 e0       	ldi	r31, 0x05	; 5
    2824:	de 01       	movw	r26, r28
    2826:	11 96       	adiw	r26, 0x01	; 1
    2828:	01 90       	ld	r0, Z+
    282a:	0d 92       	st	X+, r0
    282c:	8a 95       	dec	r24
    282e:	e1 f7       	brne	.-8      	; 0x2828 <_ZN6Timer116select_prescalerEi+0x3a>
    2830:	ce 01       	movw	r24, r28
    2832:	01 96       	adiw	r24, 0x01	; 1
    2834:	6c 01       	movw	r12, r24
	int index = 0;
    2836:	00 e0       	ldi	r16, 0x00	; 0
    2838:	10 e0       	ldi	r17, 0x00	; 0
	int _MAX_time = 0;
	for (;index<5;index++)
	{
		_MAX_time = 65536*_prescaler_table[index]/(F_CPU/1000);
    283a:	30 e8       	ldi	r19, 0x80	; 128
    283c:	43 2e       	mov	r4, r19
    283e:	3e e3       	ldi	r19, 0x3E	; 62
    2840:	53 2e       	mov	r5, r19
    2842:	61 2c       	mov	r6, r1
    2844:	71 2c       	mov	r7, r1
    2846:	f6 01       	movw	r30, r12
    2848:	61 91       	ld	r22, Z+
    284a:	71 91       	ld	r23, Z+
    284c:	6f 01       	movw	r12, r30
    284e:	cb 01       	movw	r24, r22
    2850:	77 0f       	add	r23, r23
    2852:	aa 0b       	sbc	r26, r26
    2854:	bb 0b       	sbc	r27, r27
    2856:	77 27       	eor	r23, r23
    2858:	66 27       	eor	r22, r22
    285a:	a3 01       	movw	r20, r6
    285c:	92 01       	movw	r18, r4
    285e:	0e 94 b7 1b 	call	0x376e	; 0x376e <__divmodsi4>
		this->MAX_time = _MAX_time;
		if (_MAX_time>_time)
    2862:	a2 16       	cp	r10, r18
    2864:	b3 06       	cpc	r11, r19
    2866:	2c f0       	brlt	.+10     	; 0x2872 <_ZN6Timer116select_prescalerEi+0x84>
int Timer1::select_prescaler(int _time)
{
	int _prescaler_table[5] = {1,8,64,256,1024};
	int index = 0;
	int _MAX_time = 0;
	for (;index<5;index++)
    2868:	0f 5f       	subi	r16, 0xFF	; 255
    286a:	1f 4f       	sbci	r17, 0xFF	; 255
    286c:	05 30       	cpi	r16, 0x05	; 5
    286e:	11 05       	cpc	r17, r1
    2870:	51 f7       	brne	.-44     	; 0x2846 <_ZN6Timer116select_prescalerEi+0x58>
    2872:	f7 01       	movw	r30, r14
    2874:	31 87       	std	Z+9, r19	; 0x09
    2876:	20 87       	std	Z+8, r18	; 0x08
		else if (index == 4)
		{
			# warning "The MAX_time of Timer1 cannot reach the requirement!"
		}
	}
	return _prescaler_table[index];
    2878:	00 0f       	add	r16, r16
    287a:	11 1f       	adc	r17, r17
    287c:	e1 e0       	ldi	r30, 0x01	; 1
    287e:	f0 e0       	ldi	r31, 0x00	; 0
    2880:	ec 0f       	add	r30, r28
    2882:	fd 1f       	adc	r31, r29
    2884:	e0 0f       	add	r30, r16
    2886:	f1 1f       	adc	r31, r17
}
    2888:	80 81       	ld	r24, Z
    288a:	91 81       	ldd	r25, Z+1	; 0x01
    288c:	2a 96       	adiw	r28, 0x0a	; 10
    288e:	0f b6       	in	r0, 0x3f	; 63
    2890:	f8 94       	cli
    2892:	de bf       	out	0x3e, r29	; 62
    2894:	0f be       	out	0x3f, r0	; 63
    2896:	cd bf       	out	0x3d, r28	; 61
    2898:	df 91       	pop	r29
    289a:	cf 91       	pop	r28
    289c:	1f 91       	pop	r17
    289e:	0f 91       	pop	r16
    28a0:	ff 90       	pop	r15
    28a2:	ef 90       	pop	r14
    28a4:	df 90       	pop	r13
    28a6:	cf 90       	pop	r12
    28a8:	bf 90       	pop	r11
    28aa:	af 90       	pop	r10
    28ac:	7f 90       	pop	r7
    28ae:	6f 90       	pop	r6
    28b0:	5f 90       	pop	r5
    28b2:	4f 90       	pop	r4
    28b4:	08 95       	ret

000028b6 <_ZN6Timer1C1Ev>:

// default constructor
Timer1::Timer1()
    28b6:	cf 93       	push	r28
    28b8:	df 93       	push	r29
    28ba:	ec 01       	movw	r28, r24
    28bc:	6f ed       	ldi	r22, 0xDF	; 223
    28be:	75 e0       	ldi	r23, 0x05	; 5
    28c0:	0e 94 0b 1a 	call	0x3416	; 0x3416 <_ZN6StringC1EPKc>
    28c4:	81 e0       	ldi	r24, 0x01	; 1
    28c6:	90 e0       	ldi	r25, 0x00	; 0
    28c8:	9f 83       	std	Y+7, r25	; 0x07
    28ca:	8e 83       	std	Y+6, r24	; 0x06
    28cc:	19 86       	std	Y+9, r1	; 0x09
    28ce:	18 86       	std	Y+8, r1	; 0x08
    28d0:	1b 86       	std	Y+11, r1	; 0x0b
    28d2:	1a 86       	std	Y+10, r1	; 0x0a
{
	SREG |=0x80;//打开全局中断
    28d4:	8f b7       	in	r24, 0x3f	; 63
    28d6:	80 68       	ori	r24, 0x80	; 128
    28d8:	8f bf       	out	0x3f, r24	; 63
} //Timer1
    28da:	df 91       	pop	r29
    28dc:	cf 91       	pop	r28
    28de:	08 95       	ret

000028e0 <_ZN6Timer17setModeE6Stringi>:
	Timer1();
	# warning "Mode set completely!"
} //Timer1

void Timer1::setMode(String _mode,int _time)
{
    28e0:	ef 92       	push	r14
    28e2:	ff 92       	push	r15
    28e4:	0f 93       	push	r16
    28e6:	1f 93       	push	r17
    28e8:	cf 93       	push	r28
    28ea:	df 93       	push	r29
    28ec:	ec 01       	movw	r28, r24
    28ee:	7b 01       	movw	r14, r22
    28f0:	8a 01       	movw	r16, r20
	this->Mode = _mode;
    28f2:	0e 94 5d 1a 	call	0x34ba	; 0x34ba <_ZN6StringaSERKS_>
	//自动选择分频因子
	this->prescaler = select_prescaler(_time);
    28f6:	b8 01       	movw	r22, r16
    28f8:	ce 01       	movw	r24, r28
    28fa:	0e 94 f7 13 	call	0x27ee	; 0x27ee <_ZN6Timer116select_prescalerEi>
    28fe:	9f 83       	std	Y+7, r25	; 0x07
    2900:	8e 83       	std	Y+6, r24	; 0x06
	
	//模式选择
	_mode.toUpperCase();
    2902:	c7 01       	movw	r24, r14
    2904:	0e 94 82 1b 	call	0x3704	; 0x3704 <_ZN6String11toUpperCaseEv>
	operator StringIfHelperType() const { return buffer ? &String::StringIfHelper : 0; }
	int compareTo(const String &s) const;
	unsigned char equals(const String &s) const;
	unsigned char equals(const char *cstr) const;
	unsigned char operator == (const String &rhs) const {return equals(rhs);}
	unsigned char operator == (const char *cstr) const {return equals(cstr);}
    2908:	6e e4       	ldi	r22, 0x4E	; 78
    290a:	75 e0       	ldi	r23, 0x05	; 5
    290c:	c7 01       	movw	r24, r14
    290e:	0e 94 e8 1a 	call	0x35d0	; 0x35d0 <_ZNK6String6equalsEPKc>
	if (_mode == "CTC")
    2912:	88 23       	and	r24, r24
    2914:	09 f4       	brne	.+2      	; 0x2918 <_ZN6Timer17setModeE6Stringi+0x38>
    2916:	4d c0       	rjmp	.+154    	; 0x29b2 <_ZN6Timer17setModeE6Stringi+0xd2>
	{
		TCCR1A = 0X00;
    2918:	10 92 80 00 	sts	0x0080, r1	; 0x800080 <__TEXT_REGION_LENGTH__+0x7e0080>
		TCCR1B = 0X00;
    291c:	10 92 81 00 	sts	0x0081, r1	; 0x800081 <__TEXT_REGION_LENGTH__+0x7e0081>
		//确定CTC模式
		TCCR1B = (1<<WGM12);
    2920:	88 e0       	ldi	r24, 0x08	; 8
    2922:	80 93 81 00 	sts	0x0081, r24	; 0x800081 <__TEXT_REGION_LENGTH__+0x7e0081>
		
		//配置预分频器
		if (prescaler == 1){TCCR1B |=(1<<CS10);}
    2926:	8e 81       	ldd	r24, Y+6	; 0x06
    2928:	9f 81       	ldd	r25, Y+7	; 0x07
    292a:	01 97       	sbiw	r24, 0x01	; 1
    292c:	29 f4       	brne	.+10     	; 0x2938 <_ZN6Timer17setModeE6Stringi+0x58>
    292e:	80 91 81 00 	lds	r24, 0x0081	; 0x800081 <__TEXT_REGION_LENGTH__+0x7e0081>
    2932:	81 60       	ori	r24, 0x01	; 1
    2934:	80 93 81 00 	sts	0x0081, r24	; 0x800081 <__TEXT_REGION_LENGTH__+0x7e0081>
		if (prescaler == 8){TCCR1B |=(1<<CS11);}
    2938:	8e 81       	ldd	r24, Y+6	; 0x06
    293a:	9f 81       	ldd	r25, Y+7	; 0x07
    293c:	08 97       	sbiw	r24, 0x08	; 8
    293e:	29 f4       	brne	.+10     	; 0x294a <_ZN6Timer17setModeE6Stringi+0x6a>
    2940:	80 91 81 00 	lds	r24, 0x0081	; 0x800081 <__TEXT_REGION_LENGTH__+0x7e0081>
    2944:	82 60       	ori	r24, 0x02	; 2
    2946:	80 93 81 00 	sts	0x0081, r24	; 0x800081 <__TEXT_REGION_LENGTH__+0x7e0081>
		if (prescaler == 64){TCCR1B |=(1<<CS11)|(1<<CS10);}
    294a:	8e 81       	ldd	r24, Y+6	; 0x06
    294c:	9f 81       	ldd	r25, Y+7	; 0x07
    294e:	80 34       	cpi	r24, 0x40	; 64
    2950:	91 05       	cpc	r25, r1
    2952:	29 f4       	brne	.+10     	; 0x295e <_ZN6Timer17setModeE6Stringi+0x7e>
    2954:	80 91 81 00 	lds	r24, 0x0081	; 0x800081 <__TEXT_REGION_LENGTH__+0x7e0081>
    2958:	83 60       	ori	r24, 0x03	; 3
    295a:	80 93 81 00 	sts	0x0081, r24	; 0x800081 <__TEXT_REGION_LENGTH__+0x7e0081>
		if (prescaler == 256){TCCR1B |=(1<<CS12);}
    295e:	8e 81       	ldd	r24, Y+6	; 0x06
    2960:	9f 81       	ldd	r25, Y+7	; 0x07
    2962:	81 15       	cp	r24, r1
    2964:	91 40       	sbci	r25, 0x01	; 1
    2966:	29 f4       	brne	.+10     	; 0x2972 <_ZN6Timer17setModeE6Stringi+0x92>
    2968:	80 91 81 00 	lds	r24, 0x0081	; 0x800081 <__TEXT_REGION_LENGTH__+0x7e0081>
    296c:	84 60       	ori	r24, 0x04	; 4
    296e:	80 93 81 00 	sts	0x0081, r24	; 0x800081 <__TEXT_REGION_LENGTH__+0x7e0081>
		if (prescaler == 1024){TCCR1B |=(1<<CS12)|(1<<CS10);}
    2972:	8e 81       	ldd	r24, Y+6	; 0x06
    2974:	9f 81       	ldd	r25, Y+7	; 0x07
    2976:	81 15       	cp	r24, r1
    2978:	94 40       	sbci	r25, 0x04	; 4
    297a:	29 f4       	brne	.+10     	; 0x2986 <_ZN6Timer17setModeE6Stringi+0xa6>
    297c:	80 91 81 00 	lds	r24, 0x0081	; 0x800081 <__TEXT_REGION_LENGTH__+0x7e0081>
    2980:	85 60       	ori	r24, 0x05	; 5
    2982:	80 93 81 00 	sts	0x0081, r24	; 0x800081 <__TEXT_REGION_LENGTH__+0x7e0081>

static volatile voidFuncPtr _intFunc = nothing;

int Timer1::calculate(int _prescaler,int _time)
{
	int _OCR1A = _time*(F_CPU/1000)/_prescaler;
    2986:	20 e8       	ldi	r18, 0x80	; 128
    2988:	3e e3       	ldi	r19, 0x3E	; 62
    298a:	d8 01       	movw	r26, r16
    298c:	0e 94 e5 1b 	call	0x37ca	; 0x37ca <__usmulhisi3>
    2990:	2e 81       	ldd	r18, Y+6	; 0x06
    2992:	3f 81       	ldd	r19, Y+7	; 0x07
    2994:	03 2e       	mov	r0, r19
    2996:	00 0c       	add	r0, r0
    2998:	44 0b       	sbc	r20, r20
    299a:	55 0b       	sbc	r21, r21
    299c:	0e 94 b7 1b 	call	0x376e	; 0x376e <__divmodsi4>
    29a0:	3b 87       	std	Y+11, r19	; 0x0b
    29a2:	2a 87       	std	Y+10, r18	; 0x0a
		if (prescaler == 64){TCCR1B |=(1<<CS11)|(1<<CS10);}
		if (prescaler == 256){TCCR1B |=(1<<CS12);}
		if (prescaler == 1024){TCCR1B |=(1<<CS12)|(1<<CS10);}
			
		//设置时间
		OCR1A = this->calculate(prescaler,_time);
    29a4:	30 93 89 00 	sts	0x0089, r19	; 0x800089 <__TEXT_REGION_LENGTH__+0x7e0089>
    29a8:	20 93 88 00 	sts	0x0088, r18	; 0x800088 <__TEXT_REGION_LENGTH__+0x7e0088>
		//配置匹配溢出中断
		TIMSK1 =(1<<OCIE1A);
    29ac:	82 e0       	ldi	r24, 0x02	; 2
    29ae:	80 93 6f 00 	sts	0x006F, r24	; 0x80006f <__TEXT_REGION_LENGTH__+0x7e006f>
	}
}
    29b2:	df 91       	pop	r29
    29b4:	cf 91       	pop	r28
    29b6:	1f 91       	pop	r17
    29b8:	0f 91       	pop	r16
    29ba:	ff 90       	pop	r15
    29bc:	ef 90       	pop	r14
    29be:	08 95       	ret

000029c0 <_ZN6Timer1C1E6Stringi>:
Timer1::Timer1()
{
	SREG |=0x80;//打开全局中断
} //Timer1

Timer1::Timer1(String _mode,int _time)
    29c0:	ef 92       	push	r14
    29c2:	ff 92       	push	r15
    29c4:	0f 93       	push	r16
    29c6:	1f 93       	push	r17
    29c8:	cf 93       	push	r28
    29ca:	df 93       	push	r29
    29cc:	cd b7       	in	r28, 0x3d	; 61
    29ce:	de b7       	in	r29, 0x3e	; 62
    29d0:	2e 97       	sbiw	r28, 0x0e	; 14
    29d2:	0f b6       	in	r0, 0x3f	; 63
    29d4:	f8 94       	cli
    29d6:	de bf       	out	0x3e, r29	; 62
    29d8:	0f be       	out	0x3f, r0	; 63
    29da:	cd bf       	out	0x3d, r28	; 61
    29dc:	8c 01       	movw	r16, r24
    29de:	7b 01       	movw	r14, r22
    29e0:	6f ed       	ldi	r22, 0xDF	; 223
    29e2:	75 e0       	ldi	r23, 0x05	; 5
    29e4:	4d 87       	std	Y+13, r20	; 0x0d
    29e6:	5e 87       	std	Y+14, r21	; 0x0e
    29e8:	0e 94 0b 1a 	call	0x3416	; 0x3416 <_ZN6StringC1EPKc>
    29ec:	81 e0       	ldi	r24, 0x01	; 1
    29ee:	90 e0       	ldi	r25, 0x00	; 0
    29f0:	f8 01       	movw	r30, r16
    29f2:	97 83       	std	Z+7, r25	; 0x07
    29f4:	86 83       	std	Z+6, r24	; 0x06
    29f6:	11 86       	std	Z+9, r1	; 0x09
    29f8:	10 86       	std	Z+8, r1	; 0x08
    29fa:	13 86       	std	Z+11, r1	; 0x0b
    29fc:	12 86       	std	Z+10, r1	; 0x0a
{
	
	setMode(_mode,_time);
    29fe:	b7 01       	movw	r22, r14
    2a00:	ce 01       	movw	r24, r28
    2a02:	01 96       	adiw	r24, 0x01	; 1
    2a04:	0e 94 74 1a 	call	0x34e8	; 0x34e8 <_ZN6StringC1ERKS_>
    2a08:	4d 85       	ldd	r20, Y+13	; 0x0d
    2a0a:	5e 85       	ldd	r21, Y+14	; 0x0e
    2a0c:	be 01       	movw	r22, r28
    2a0e:	6f 5f       	subi	r22, 0xFF	; 255
    2a10:	7f 4f       	sbci	r23, 0xFF	; 255
    2a12:	c8 01       	movw	r24, r16
    2a14:	0e 94 70 14 	call	0x28e0	; 0x28e0 <_ZN6Timer17setModeE6Stringi>
    2a18:	ce 01       	movw	r24, r28
    2a1a:	01 96       	adiw	r24, 0x01	; 1
    2a1c:	0e 94 9d 19 	call	0x333a	; 0x333a <_ZN6StringD1Ev>
	Timer1();
    2a20:	ce 01       	movw	r24, r28
    2a22:	01 96       	adiw	r24, 0x01	; 1
    2a24:	0e 94 5b 14 	call	0x28b6	; 0x28b6 <_ZN6Timer1C1Ev>
{
	_intFunc = userFunc;
}

// default destructor
Timer1::~Timer1()
    2a28:	ce 01       	movw	r24, r28
    2a2a:	01 96       	adiw	r24, 0x01	; 1
    2a2c:	0e 94 9d 19 	call	0x333a	; 0x333a <_ZN6StringD1Ev>
{
	
	setMode(_mode,_time);
	Timer1();
	# warning "Mode set completely!"
} //Timer1
    2a30:	2e 96       	adiw	r28, 0x0e	; 14
    2a32:	0f b6       	in	r0, 0x3f	; 63
    2a34:	f8 94       	cli
    2a36:	de bf       	out	0x3e, r29	; 62
    2a38:	0f be       	out	0x3f, r0	; 63
    2a3a:	cd bf       	out	0x3d, r28	; 61
    2a3c:	df 91       	pop	r29
    2a3e:	cf 91       	pop	r28
    2a40:	1f 91       	pop	r17
    2a42:	0f 91       	pop	r16
    2a44:	ff 90       	pop	r15
    2a46:	ef 90       	pop	r14
    2a48:	08 95       	ret

00002a4a <_ZN6Timer115attachInterruptEPFvvE>:
	}
}

void Timer1::attachInterrupt(void (*userFunc)(void))
{
	_intFunc = userFunc;
    2a4a:	70 93 17 05 	sts	0x0517, r23	; 0x800517 <_ZL8_intFunc+0x1>
    2a4e:	60 93 16 05 	sts	0x0516, r22	; 0x800516 <_ZL8_intFunc>
    2a52:	08 95       	ret

00002a54 <_ZN6Timer1D1Ev>:
}

// default destructor
Timer1::~Timer1()
    2a54:	0c 94 9d 19 	jmp	0x333a	; 0x333a <_ZN6StringD1Ev>

00002a58 <__vector_11>:
{
} //~Timer1

ISR (TIMER1_COMPA_vect)
{
    2a58:	1f 92       	push	r1
    2a5a:	0f 92       	push	r0
    2a5c:	0f b6       	in	r0, 0x3f	; 63
    2a5e:	0f 92       	push	r0
    2a60:	11 24       	eor	r1, r1
    2a62:	2f 93       	push	r18
    2a64:	3f 93       	push	r19
    2a66:	4f 93       	push	r20
    2a68:	5f 93       	push	r21
    2a6a:	6f 93       	push	r22
    2a6c:	7f 93       	push	r23
    2a6e:	8f 93       	push	r24
    2a70:	9f 93       	push	r25
    2a72:	af 93       	push	r26
    2a74:	bf 93       	push	r27
    2a76:	ef 93       	push	r30
    2a78:	ff 93       	push	r31
	_intFunc();
    2a7a:	e0 91 16 05 	lds	r30, 0x0516	; 0x800516 <_ZL8_intFunc>
    2a7e:	f0 91 17 05 	lds	r31, 0x0517	; 0x800517 <_ZL8_intFunc+0x1>
    2a82:	09 95       	icall
    2a84:	ff 91       	pop	r31
    2a86:	ef 91       	pop	r30
    2a88:	bf 91       	pop	r27
    2a8a:	af 91       	pop	r26
    2a8c:	9f 91       	pop	r25
    2a8e:	8f 91       	pop	r24
    2a90:	7f 91       	pop	r23
    2a92:	6f 91       	pop	r22
    2a94:	5f 91       	pop	r21
    2a96:	4f 91       	pop	r20
    2a98:	3f 91       	pop	r19
    2a9a:	2f 91       	pop	r18
    2a9c:	0f 90       	pop	r0
    2a9e:	0f be       	out	0x3f, r0	; 63
    2aa0:	0f 90       	pop	r0
    2aa2:	1f 90       	pop	r1
    2aa4:	18 95       	reti

00002aa6 <_ZN2XKC1Ev>:
} //XK

 XK::XK(String str)
{
	this->setName(str);
}
    2aa6:	cf 93       	push	r28
    2aa8:	df 93       	push	r29
    2aaa:	ec 01       	movw	r28, r24
    2aac:	6f ed       	ldi	r22, 0xDF	; 223
    2aae:	75 e0       	ldi	r23, 0x05	; 5
    2ab0:	0e 94 0b 1a 	call	0x3416	; 0x3416 <_ZN6StringC1EPKc>
    2ab4:	68 ec       	ldi	r22, 0xC8	; 200
    2ab6:	75 e0       	ldi	r23, 0x05	; 5
    2ab8:	ce 01       	movw	r24, r28
    2aba:	df 91       	pop	r29
    2abc:	cf 91       	pop	r28
    2abe:	0c 94 e8 1a 	jmp	0x35d0	; 0x35d0 <_ZNK6String6equalsEPKc>

00002ac2 <_ZN2XKD1Ev>:

// default destructor
XK::~XK()
    2ac2:	0c 94 9d 19 	jmp	0x333a	; 0x333a <_ZN6StringD1Ev>

00002ac6 <__cxa_pure_virtual>:
extern "C" void __cxa_deleted_virtual(void) __attribute__ ((__noreturn__));

void __cxa_pure_virtual(void) {
  // We might want to write some diagnostics to uart in this case
  //std::terminate();
  abort();
    2ac6:	0e 94 e9 1d 	call	0x3bd2	; 0x3bd2 <abort>

00002aca <_ZN14HardwareSerial9availableEv>:
  // clear any received data
  _rx_buffer_head = _rx_buffer_tail;
}

int HardwareSerial::available(void)
{
    2aca:	fc 01       	movw	r30, r24
  return ((unsigned int)(SERIAL_RX_BUFFER_SIZE + _rx_buffer_head - _rx_buffer_tail)) % SERIAL_RX_BUFFER_SIZE;
    2acc:	91 8d       	ldd	r25, Z+25	; 0x19
    2ace:	22 8d       	ldd	r18, Z+26	; 0x1a
    2ad0:	89 2f       	mov	r24, r25
    2ad2:	90 e0       	ldi	r25, 0x00	; 0
    2ad4:	80 5c       	subi	r24, 0xC0	; 192
    2ad6:	9f 4f       	sbci	r25, 0xFF	; 255
    2ad8:	82 1b       	sub	r24, r18
    2ada:	91 09       	sbc	r25, r1
}
    2adc:	8f 73       	andi	r24, 0x3F	; 63
    2ade:	99 27       	eor	r25, r25
    2ae0:	08 95       	ret

00002ae2 <_ZN14HardwareSerial4peekEv>:

int HardwareSerial::peek(void)
{
    2ae2:	fc 01       	movw	r30, r24
  if (_rx_buffer_head == _rx_buffer_tail) {
    2ae4:	91 8d       	ldd	r25, Z+25	; 0x19
    2ae6:	82 8d       	ldd	r24, Z+26	; 0x1a
    2ae8:	98 17       	cp	r25, r24
    2aea:	31 f0       	breq	.+12     	; 0x2af8 <_ZN14HardwareSerial4peekEv+0x16>
    return -1;
  } else {
    return _rx_buffer[_rx_buffer_tail];
    2aec:	82 8d       	ldd	r24, Z+26	; 0x1a
    2aee:	e8 0f       	add	r30, r24
    2af0:	f1 1d       	adc	r31, r1
    2af2:	85 8d       	ldd	r24, Z+29	; 0x1d
    2af4:	90 e0       	ldi	r25, 0x00	; 0
    2af6:	08 95       	ret
}

int HardwareSerial::peek(void)
{
  if (_rx_buffer_head == _rx_buffer_tail) {
    return -1;
    2af8:	8f ef       	ldi	r24, 0xFF	; 255
    2afa:	9f ef       	ldi	r25, 0xFF	; 255
  } else {
    return _rx_buffer[_rx_buffer_tail];
  }
}
    2afc:	08 95       	ret

00002afe <_ZN14HardwareSerial4readEv>:

int HardwareSerial::read(void)
{
    2afe:	fc 01       	movw	r30, r24
  // if the head isn't ahead of the tail, we don't have any characters
  if (_rx_buffer_head == _rx_buffer_tail) {
    2b00:	91 8d       	ldd	r25, Z+25	; 0x19
    2b02:	82 8d       	ldd	r24, Z+26	; 0x1a
    2b04:	98 17       	cp	r25, r24
    2b06:	61 f0       	breq	.+24     	; 0x2b20 <_ZN14HardwareSerial4readEv+0x22>
    return -1;
  } else {
    unsigned char c = _rx_buffer[_rx_buffer_tail];
    2b08:	82 8d       	ldd	r24, Z+26	; 0x1a
    2b0a:	df 01       	movw	r26, r30
    2b0c:	a8 0f       	add	r26, r24
    2b0e:	b1 1d       	adc	r27, r1
    2b10:	5d 96       	adiw	r26, 0x1d	; 29
    2b12:	8c 91       	ld	r24, X
    _rx_buffer_tail = (rx_buffer_index_t)(_rx_buffer_tail + 1) % SERIAL_RX_BUFFER_SIZE;
    2b14:	92 8d       	ldd	r25, Z+26	; 0x1a
    2b16:	9f 5f       	subi	r25, 0xFF	; 255
    2b18:	9f 73       	andi	r25, 0x3F	; 63
    2b1a:	92 8f       	std	Z+26, r25	; 0x1a
    return c;
    2b1c:	90 e0       	ldi	r25, 0x00	; 0
    2b1e:	08 95       	ret

int HardwareSerial::read(void)
{
  // if the head isn't ahead of the tail, we don't have any characters
  if (_rx_buffer_head == _rx_buffer_tail) {
    return -1;
    2b20:	8f ef       	ldi	r24, 0xFF	; 255
    2b22:	9f ef       	ldi	r25, 0xFF	; 255
  } else {
    unsigned char c = _rx_buffer[_rx_buffer_tail];
    _rx_buffer_tail = (rx_buffer_index_t)(_rx_buffer_tail + 1) % SERIAL_RX_BUFFER_SIZE;
    return c;
  }
}
    2b24:	08 95       	ret

00002b26 <_ZN14HardwareSerial17availableForWriteEv>:
{
#if (SERIAL_TX_BUFFER_SIZE>256)
  uint8_t oldSREG = SREG;
  cli();
#endif
  tx_buffer_index_t head = _tx_buffer_head;
    2b26:	fc 01       	movw	r30, r24
    2b28:	53 8d       	ldd	r21, Z+27	; 0x1b
  tx_buffer_index_t tail = _tx_buffer_tail;
    2b2a:	44 8d       	ldd	r20, Z+28	; 0x1c
    2b2c:	25 2f       	mov	r18, r21
    2b2e:	30 e0       	ldi	r19, 0x00	; 0
    2b30:	84 2f       	mov	r24, r20
    2b32:	90 e0       	ldi	r25, 0x00	; 0
#if (SERIAL_TX_BUFFER_SIZE>256)
  SREG = oldSREG;
#endif
  if (head >= tail) return SERIAL_TX_BUFFER_SIZE - 1 - head + tail;
    2b34:	82 1b       	sub	r24, r18
    2b36:	93 0b       	sbc	r25, r19
    2b38:	54 17       	cp	r21, r20
    2b3a:	10 f0       	brcs	.+4      	; 0x2b40 <_ZN14HardwareSerial17availableForWriteEv+0x1a>
    2b3c:	cf 96       	adiw	r24, 0x3f	; 63
    2b3e:	08 95       	ret
  return tail - head - 1;
    2b40:	01 97       	sbiw	r24, 0x01	; 1
}
    2b42:	08 95       	ret

00002b44 <_Z14serialEventRunv>:
#endif

void serialEventRun(void)
{
#if defined(HAVE_HWSERIAL0)
  if (Serial0_available && serialEvent && Serial0_available()) serialEvent();
    2b44:	87 ef       	ldi	r24, 0xF7	; 247
    2b46:	96 e1       	ldi	r25, 0x16	; 22
    2b48:	89 2b       	or	r24, r25
    2b4a:	49 f0       	breq	.+18     	; 0x2b5e <_Z14serialEventRunv+0x1a>
    2b4c:	80 e0       	ldi	r24, 0x00	; 0
    2b4e:	90 e0       	ldi	r25, 0x00	; 0
    2b50:	89 2b       	or	r24, r25
    2b52:	29 f0       	breq	.+10     	; 0x2b5e <_Z14serialEventRunv+0x1a>
    2b54:	0e 94 f7 16 	call	0x2dee	; 0x2dee <_Z17Serial0_availablev>
    2b58:	81 11       	cpse	r24, r1
    2b5a:	0c 94 00 00 	jmp	0	; 0x0 <__vectors>
    2b5e:	08 95       	ret

00002b60 <_ZN14HardwareSerial17_tx_udr_empty_irqEv>:
}

// Actual interrupt handlers //////////////////////////////////////////////////////////////

void HardwareSerial::_tx_udr_empty_irq(void)
{
    2b60:	fc 01       	movw	r30, r24
  // If interrupts are enabled, there must be more data in the output
  // buffer. Send the next byte
  unsigned char c = _tx_buffer[_tx_buffer_tail];
    2b62:	84 8d       	ldd	r24, Z+28	; 0x1c
    2b64:	df 01       	movw	r26, r30
    2b66:	a8 0f       	add	r26, r24
    2b68:	b1 1d       	adc	r27, r1
    2b6a:	a3 5a       	subi	r26, 0xA3	; 163
    2b6c:	bf 4f       	sbci	r27, 0xFF	; 255
    2b6e:	2c 91       	ld	r18, X
  _tx_buffer_tail = (_tx_buffer_tail + 1) % SERIAL_TX_BUFFER_SIZE;
    2b70:	84 8d       	ldd	r24, Z+28	; 0x1c
    2b72:	90 e0       	ldi	r25, 0x00	; 0
    2b74:	01 96       	adiw	r24, 0x01	; 1
    2b76:	8f 73       	andi	r24, 0x3F	; 63
    2b78:	99 27       	eor	r25, r25
    2b7a:	84 8f       	std	Z+28, r24	; 0x1c

  *_udr = c;
    2b7c:	a6 89       	ldd	r26, Z+22	; 0x16
    2b7e:	b7 89       	ldd	r27, Z+23	; 0x17
    2b80:	2c 93       	st	X, r18

  // clear the TXC bit -- "can be cleared by writing a one to its bit
  // location". This makes sure flush() won't return until the bytes
  // actually got written
  sbi(*_ucsra, TXC0);
    2b82:	a0 89       	ldd	r26, Z+16	; 0x10
    2b84:	b1 89       	ldd	r27, Z+17	; 0x11
    2b86:	8c 91       	ld	r24, X
    2b88:	80 64       	ori	r24, 0x40	; 64
    2b8a:	8c 93       	st	X, r24

  if (_tx_buffer_head == _tx_buffer_tail) {
    2b8c:	93 8d       	ldd	r25, Z+27	; 0x1b
    2b8e:	84 8d       	ldd	r24, Z+28	; 0x1c
    2b90:	98 13       	cpse	r25, r24
    2b92:	06 c0       	rjmp	.+12     	; 0x2ba0 <_ZN14HardwareSerial17_tx_udr_empty_irqEv+0x40>
    // Buffer empty, so disable interrupts
    cbi(*_ucsrb, UDRIE0);
    2b94:	02 88       	ldd	r0, Z+18	; 0x12
    2b96:	f3 89       	ldd	r31, Z+19	; 0x13
    2b98:	e0 2d       	mov	r30, r0
    2b9a:	80 81       	ld	r24, Z
    2b9c:	8f 7d       	andi	r24, 0xDF	; 223
    2b9e:	80 83       	st	Z, r24
    2ba0:	08 95       	ret

00002ba2 <_ZN14HardwareSerial5flushEv>:
  if (head >= tail) return SERIAL_TX_BUFFER_SIZE - 1 - head + tail;
  return tail - head - 1;
}

void HardwareSerial::flush()
{
    2ba2:	cf 93       	push	r28
    2ba4:	df 93       	push	r29
    2ba6:	ec 01       	movw	r28, r24
  // If we have never written a byte, no need to flush. This special
  // case is needed since there is no way to force the TXC (transmit
  // complete) bit to 1 during initialization
  if (!_written)
    2ba8:	88 8d       	ldd	r24, Y+24	; 0x18
    2baa:	88 23       	and	r24, r24
    2bac:	c9 f0       	breq	.+50     	; 0x2be0 <_ZN14HardwareSerial5flushEv+0x3e>
    return;

  while (bit_is_set(*_ucsrb, UDRIE0) || bit_is_clear(*_ucsra, TXC0)) {
    2bae:	ea 89       	ldd	r30, Y+18	; 0x12
    2bb0:	fb 89       	ldd	r31, Y+19	; 0x13
    2bb2:	80 81       	ld	r24, Z
    2bb4:	85 fd       	sbrc	r24, 5
    2bb6:	05 c0       	rjmp	.+10     	; 0x2bc2 <_ZN14HardwareSerial5flushEv+0x20>
    2bb8:	a8 89       	ldd	r26, Y+16	; 0x10
    2bba:	b9 89       	ldd	r27, Y+17	; 0x11
    2bbc:	8c 91       	ld	r24, X
    2bbe:	86 fd       	sbrc	r24, 6
    2bc0:	0f c0       	rjmp	.+30     	; 0x2be0 <_ZN14HardwareSerial5flushEv+0x3e>
    if (bit_is_clear(SREG, SREG_I) && bit_is_set(*_ucsrb, UDRIE0))
    2bc2:	0f b6       	in	r0, 0x3f	; 63
    2bc4:	07 fc       	sbrc	r0, 7
    2bc6:	f5 cf       	rjmp	.-22     	; 0x2bb2 <_ZN14HardwareSerial5flushEv+0x10>
    2bc8:	80 81       	ld	r24, Z
    2bca:	85 ff       	sbrs	r24, 5
    2bcc:	f2 cf       	rjmp	.-28     	; 0x2bb2 <_ZN14HardwareSerial5flushEv+0x10>
	// Interrupts are globally disabled, but the DR empty
	// interrupt should be enabled, so poll the DR empty flag to
	// prevent deadlock
	if (bit_is_set(*_ucsra, UDRE0))
    2bce:	a8 89       	ldd	r26, Y+16	; 0x10
    2bd0:	b9 89       	ldd	r27, Y+17	; 0x11
    2bd2:	8c 91       	ld	r24, X
    2bd4:	85 ff       	sbrs	r24, 5
    2bd6:	ed cf       	rjmp	.-38     	; 0x2bb2 <_ZN14HardwareSerial5flushEv+0x10>
	  _tx_udr_empty_irq();
    2bd8:	ce 01       	movw	r24, r28
    2bda:	0e 94 b0 15 	call	0x2b60	; 0x2b60 <_ZN14HardwareSerial17_tx_udr_empty_irqEv>
    2bde:	e7 cf       	rjmp	.-50     	; 0x2bae <_ZN14HardwareSerial5flushEv+0xc>
  }
  // If we get here, nothing is queued anymore (DRIE is disabled) and
  // the hardware finished tranmission (TXC is set).
}
    2be0:	df 91       	pop	r29
    2be2:	cf 91       	pop	r28
    2be4:	08 95       	ret

00002be6 <_ZN14HardwareSerial5writeEh>:

size_t HardwareSerial::write(uint8_t c)
{
    2be6:	ef 92       	push	r14
    2be8:	ff 92       	push	r15
    2bea:	0f 93       	push	r16
    2bec:	1f 93       	push	r17
    2bee:	cf 93       	push	r28
    2bf0:	df 93       	push	r29
    2bf2:	ec 01       	movw	r28, r24
  _written = true;
    2bf4:	81 e0       	ldi	r24, 0x01	; 1
    2bf6:	88 8f       	std	Y+24, r24	; 0x18
  // If the buffer and the data register is empty, just write the byte
  // to the data register and be done. This shortcut helps
  // significantly improve the effective datarate at high (>
  // 500kbit/s) bitrates, where interrupt overhead becomes a slowdown.
  if (_tx_buffer_head == _tx_buffer_tail && bit_is_set(*_ucsra, UDRE0)) {
    2bf8:	9b 8d       	ldd	r25, Y+27	; 0x1b
    2bfa:	8c 8d       	ldd	r24, Y+28	; 0x1c
    2bfc:	98 13       	cpse	r25, r24
    2bfe:	05 c0       	rjmp	.+10     	; 0x2c0a <_ZN14HardwareSerial5writeEh+0x24>
    2c00:	e8 89       	ldd	r30, Y+16	; 0x10
    2c02:	f9 89       	ldd	r31, Y+17	; 0x11
    2c04:	80 81       	ld	r24, Z
    2c06:	85 fd       	sbrc	r24, 5
    2c08:	24 c0       	rjmp	.+72     	; 0x2c52 <_ZN14HardwareSerial5writeEh+0x6c>
    2c0a:	f6 2e       	mov	r15, r22
    *_udr = c;
    sbi(*_ucsra, TXC0);
    return 1;
  }
  tx_buffer_index_t i = (_tx_buffer_head + 1) % SERIAL_TX_BUFFER_SIZE;
    2c0c:	0b 8d       	ldd	r16, Y+27	; 0x1b
    2c0e:	10 e0       	ldi	r17, 0x00	; 0
    2c10:	0f 5f       	subi	r16, 0xFF	; 255
    2c12:	1f 4f       	sbci	r17, 0xFF	; 255
    2c14:	0f 73       	andi	r16, 0x3F	; 63
    2c16:	11 27       	eor	r17, r17
    2c18:	e0 2e       	mov	r14, r16
	
  // If the output buffer is full, there's nothing for it other than to 
  // wait for the interrupt handler to empty it a bit
  while (i == _tx_buffer_tail) {
    2c1a:	8c 8d       	ldd	r24, Y+28	; 0x1c
    2c1c:	e8 12       	cpse	r14, r24
    2c1e:	0c c0       	rjmp	.+24     	; 0x2c38 <_ZN14HardwareSerial5writeEh+0x52>
    if (bit_is_clear(SREG, SREG_I)) {
    2c20:	0f b6       	in	r0, 0x3f	; 63
    2c22:	07 fc       	sbrc	r0, 7
    2c24:	fa cf       	rjmp	.-12     	; 0x2c1a <_ZN14HardwareSerial5writeEh+0x34>
      // Interrupts are disabled, so we'll have to poll the data
      // register empty flag ourselves. If it is set, pretend an
      // interrupt has happened and call the handler to free up
      // space for us.
      if(bit_is_set(*_ucsra, UDRE0))
    2c26:	e8 89       	ldd	r30, Y+16	; 0x10
    2c28:	f9 89       	ldd	r31, Y+17	; 0x11
    2c2a:	80 81       	ld	r24, Z
    2c2c:	85 ff       	sbrs	r24, 5
    2c2e:	f5 cf       	rjmp	.-22     	; 0x2c1a <_ZN14HardwareSerial5writeEh+0x34>
	_tx_udr_empty_irq();
    2c30:	ce 01       	movw	r24, r28
    2c32:	0e 94 b0 15 	call	0x2b60	; 0x2b60 <_ZN14HardwareSerial17_tx_udr_empty_irqEv>
    2c36:	f1 cf       	rjmp	.-30     	; 0x2c1a <_ZN14HardwareSerial5writeEh+0x34>
    } else {
      // nop, the interrupt handler will free up space for us
    }
  }

  _tx_buffer[_tx_buffer_head] = c;
    2c38:	8b 8d       	ldd	r24, Y+27	; 0x1b
    2c3a:	fe 01       	movw	r30, r28
    2c3c:	e8 0f       	add	r30, r24
    2c3e:	f1 1d       	adc	r31, r1
    2c40:	e3 5a       	subi	r30, 0xA3	; 163
    2c42:	ff 4f       	sbci	r31, 0xFF	; 255
    2c44:	f0 82       	st	Z, r15
  _tx_buffer_head = i;
    2c46:	0b 8f       	std	Y+27, r16	; 0x1b
	
  sbi(*_ucsrb, UDRIE0);
    2c48:	ea 89       	ldd	r30, Y+18	; 0x12
    2c4a:	fb 89       	ldd	r31, Y+19	; 0x13
    2c4c:	80 81       	ld	r24, Z
    2c4e:	80 62       	ori	r24, 0x20	; 32
    2c50:	07 c0       	rjmp	.+14     	; 0x2c60 <_ZN14HardwareSerial5writeEh+0x7a>
  // If the buffer and the data register is empty, just write the byte
  // to the data register and be done. This shortcut helps
  // significantly improve the effective datarate at high (>
  // 500kbit/s) bitrates, where interrupt overhead becomes a slowdown.
  if (_tx_buffer_head == _tx_buffer_tail && bit_is_set(*_ucsra, UDRE0)) {
    *_udr = c;
    2c52:	ee 89       	ldd	r30, Y+22	; 0x16
    2c54:	ff 89       	ldd	r31, Y+23	; 0x17
    2c56:	60 83       	st	Z, r22
    sbi(*_ucsra, TXC0);
    2c58:	e8 89       	ldd	r30, Y+16	; 0x10
    2c5a:	f9 89       	ldd	r31, Y+17	; 0x11
    2c5c:	80 81       	ld	r24, Z
    2c5e:	80 64       	ori	r24, 0x40	; 64
    2c60:	80 83       	st	Z, r24
  _tx_buffer_head = i;
	
  sbi(*_ucsrb, UDRIE0);
  
  return 1;
}
    2c62:	81 e0       	ldi	r24, 0x01	; 1
    2c64:	90 e0       	ldi	r25, 0x00	; 0
    2c66:	df 91       	pop	r29
    2c68:	cf 91       	pop	r28
    2c6a:	1f 91       	pop	r17
    2c6c:	0f 91       	pop	r16
    2c6e:	ff 90       	pop	r15
    2c70:	ef 90       	pop	r14
    2c72:	08 95       	ret

00002c74 <_ZN14HardwareSerial5beginEmh>:
}

// Public Methods //////////////////////////////////////////////////////////////

void HardwareSerial::begin(unsigned long baud, byte config)
{
    2c74:	cf 92       	push	r12
    2c76:	df 92       	push	r13
    2c78:	ef 92       	push	r14
    2c7a:	ff 92       	push	r15
    2c7c:	1f 93       	push	r17
    2c7e:	cf 93       	push	r28
    2c80:	df 93       	push	r29
    2c82:	ec 01       	movw	r28, r24
    2c84:	6a 01       	movw	r12, r20
    2c86:	7b 01       	movw	r14, r22
    2c88:	12 2f       	mov	r17, r18
  // Try u2x mode first
  uint16_t baud_setting = (F_CPU / 4 / baud - 1) / 2;
  *_ucsra = 1 << U2X0;
    2c8a:	e8 89       	ldd	r30, Y+16	; 0x10
    2c8c:	f9 89       	ldd	r31, Y+17	; 0x11
    2c8e:	82 e0       	ldi	r24, 0x02	; 2
    2c90:	80 83       	st	Z, r24
  // hardcoded exception for 57600 for compatibility with the bootloader
  // shipped with the Duemilanove and previous boards and the firmware
  // on the 8U2 on the Uno and Mega 2560. Also, The baud_setting cannot
  // be > 4095, so switch back to non-u2x mode if the baud rate is too
  // low.
  if (((F_CPU == 16000000UL) && (baud == 57600)) || (baud_setting >4095))
    2c92:	41 15       	cp	r20, r1
    2c94:	51 4e       	sbci	r21, 0xE1	; 225
    2c96:	61 05       	cpc	r22, r1
    2c98:	71 05       	cpc	r23, r1
    2c9a:	b1 f0       	breq	.+44     	; 0x2cc8 <_ZN14HardwareSerial5beginEmh+0x54>
// Public Methods //////////////////////////////////////////////////////////////

void HardwareSerial::begin(unsigned long baud, byte config)
{
  // Try u2x mode first
  uint16_t baud_setting = (F_CPU / 4 / baud - 1) / 2;
    2c9c:	60 e0       	ldi	r22, 0x00	; 0
    2c9e:	79 e0       	ldi	r23, 0x09	; 9
    2ca0:	8d e3       	ldi	r24, 0x3D	; 61
    2ca2:	90 e0       	ldi	r25, 0x00	; 0
    2ca4:	a7 01       	movw	r20, r14
    2ca6:	96 01       	movw	r18, r12
    2ca8:	0e 94 95 1b 	call	0x372a	; 0x372a <__udivmodsi4>
    2cac:	da 01       	movw	r26, r20
    2cae:	c9 01       	movw	r24, r18
    2cb0:	01 97       	sbiw	r24, 0x01	; 1
    2cb2:	a1 09       	sbc	r26, r1
    2cb4:	b1 09       	sbc	r27, r1
    2cb6:	b6 95       	lsr	r27
    2cb8:	a7 95       	ror	r26
    2cba:	97 95       	ror	r25
    2cbc:	87 95       	ror	r24
    2cbe:	ac 01       	movw	r20, r24
  // hardcoded exception for 57600 for compatibility with the bootloader
  // shipped with the Duemilanove and previous boards and the firmware
  // on the 8U2 on the Uno and Mega 2560. Also, The baud_setting cannot
  // be > 4095, so switch back to non-u2x mode if the baud rate is too
  // low.
  if (((F_CPU == 16000000UL) && (baud == 57600)) || (baud_setting >4095))
    2cc0:	41 15       	cp	r20, r1
    2cc2:	80 e1       	ldi	r24, 0x10	; 16
    2cc4:	58 07       	cpc	r21, r24
    2cc6:	a8 f0       	brcs	.+42     	; 0x2cf2 <_ZN14HardwareSerial5beginEmh+0x7e>
  {
    *_ucsra = 0;
    2cc8:	e8 89       	ldd	r30, Y+16	; 0x10
    2cca:	f9 89       	ldd	r31, Y+17	; 0x11
    2ccc:	10 82       	st	Z, r1
    baud_setting = (F_CPU / 8 / baud - 1) / 2;
    2cce:	60 e8       	ldi	r22, 0x80	; 128
    2cd0:	74 e8       	ldi	r23, 0x84	; 132
    2cd2:	8e e1       	ldi	r24, 0x1E	; 30
    2cd4:	90 e0       	ldi	r25, 0x00	; 0
    2cd6:	a7 01       	movw	r20, r14
    2cd8:	96 01       	movw	r18, r12
    2cda:	0e 94 95 1b 	call	0x372a	; 0x372a <__udivmodsi4>
    2cde:	ba 01       	movw	r22, r20
    2ce0:	a9 01       	movw	r20, r18
    2ce2:	41 50       	subi	r20, 0x01	; 1
    2ce4:	51 09       	sbc	r21, r1
    2ce6:	61 09       	sbc	r22, r1
    2ce8:	71 09       	sbc	r23, r1
    2cea:	76 95       	lsr	r23
    2cec:	67 95       	ror	r22
    2cee:	57 95       	ror	r21
    2cf0:	47 95       	ror	r20
  }

  // assign the baud_setting, a.k.a. ubrr (USART Baud Rate Register)
  *_ubrrh = baud_setting >> 8;
    2cf2:	ec 85       	ldd	r30, Y+12	; 0x0c
    2cf4:	fd 85       	ldd	r31, Y+13	; 0x0d
    2cf6:	50 83       	st	Z, r21
  *_ubrrl = baud_setting;
    2cf8:	ee 85       	ldd	r30, Y+14	; 0x0e
    2cfa:	ff 85       	ldd	r31, Y+15	; 0x0f
    2cfc:	40 83       	st	Z, r20

  _written = false;
    2cfe:	18 8e       	std	Y+24, r1	; 0x18

  //set the data bits, parity, and stop bits
#if defined(__AVR_ATmega8__)
  config |= 0x80; // select UCSRC register (shared with UBRRH)
#endif
  *_ucsrc = config;
    2d00:	ec 89       	ldd	r30, Y+20	; 0x14
    2d02:	fd 89       	ldd	r31, Y+21	; 0x15
    2d04:	10 83       	st	Z, r17
  
  sbi(*_ucsrb, RXEN0);
    2d06:	ea 89       	ldd	r30, Y+18	; 0x12
    2d08:	fb 89       	ldd	r31, Y+19	; 0x13
    2d0a:	80 81       	ld	r24, Z
    2d0c:	80 61       	ori	r24, 0x10	; 16
    2d0e:	80 83       	st	Z, r24
  sbi(*_ucsrb, TXEN0);
    2d10:	ea 89       	ldd	r30, Y+18	; 0x12
    2d12:	fb 89       	ldd	r31, Y+19	; 0x13
    2d14:	80 81       	ld	r24, Z
    2d16:	88 60       	ori	r24, 0x08	; 8
    2d18:	80 83       	st	Z, r24
  sbi(*_ucsrb, RXCIE0);
    2d1a:	ea 89       	ldd	r30, Y+18	; 0x12
    2d1c:	fb 89       	ldd	r31, Y+19	; 0x13
    2d1e:	80 81       	ld	r24, Z
    2d20:	80 68       	ori	r24, 0x80	; 128
    2d22:	80 83       	st	Z, r24
  cbi(*_ucsrb, UDRIE0);
    2d24:	ea 89       	ldd	r30, Y+18	; 0x12
    2d26:	fb 89       	ldd	r31, Y+19	; 0x13
    2d28:	80 81       	ld	r24, Z
    2d2a:	8f 7d       	andi	r24, 0xDF	; 223
    2d2c:	80 83       	st	Z, r24
}
    2d2e:	df 91       	pop	r29
    2d30:	cf 91       	pop	r28
    2d32:	1f 91       	pop	r17
    2d34:	ff 90       	pop	r15
    2d36:	ef 90       	pop	r14
    2d38:	df 90       	pop	r13
    2d3a:	cf 90       	pop	r12
    2d3c:	08 95       	ret

00002d3e <__vector_18>:
#elif defined(USART_RXC_vect)
  ISR(USART_RXC_vect) // ATmega8
#else
  #error "Don't know what the Data Received vector is called for Serial"
#endif
  {
    2d3e:	1f 92       	push	r1
    2d40:	0f 92       	push	r0
    2d42:	0f b6       	in	r0, 0x3f	; 63
    2d44:	0f 92       	push	r0
    2d46:	11 24       	eor	r1, r1
    2d48:	2f 93       	push	r18
    2d4a:	8f 93       	push	r24
    2d4c:	9f 93       	push	r25
    2d4e:	ef 93       	push	r30
    2d50:	ff 93       	push	r31

// Actual interrupt handlers //////////////////////////////////////////////////////////////

void HardwareSerial::_rx_complete_irq(void)
{
  if (bit_is_clear(*_ucsra, UPE0)) {
    2d52:	e0 91 27 07 	lds	r30, 0x0727	; 0x800727 <Serial+0x10>
    2d56:	f0 91 28 07 	lds	r31, 0x0728	; 0x800728 <Serial+0x11>
    2d5a:	80 81       	ld	r24, Z
    2d5c:	e0 91 2d 07 	lds	r30, 0x072D	; 0x80072d <Serial+0x16>
    2d60:	f0 91 2e 07 	lds	r31, 0x072E	; 0x80072e <Serial+0x17>
    2d64:	82 fd       	sbrc	r24, 2
    2d66:	12 c0       	rjmp	.+36     	; 0x2d8c <__vector_18+0x4e>
    // No Parity error, read byte and store it in the buffer if there is
    // room
    unsigned char c = *_udr;
    2d68:	90 81       	ld	r25, Z
    rx_buffer_index_t i = (unsigned int)(_rx_buffer_head + 1) % SERIAL_RX_BUFFER_SIZE;
    2d6a:	80 91 30 07 	lds	r24, 0x0730	; 0x800730 <Serial+0x19>
    2d6e:	8f 5f       	subi	r24, 0xFF	; 255
    2d70:	8f 73       	andi	r24, 0x3F	; 63

    // if we should be storing the received character into the location
    // just before the tail (meaning that the head would advance to the
    // current location of the tail), we're about to overflow the buffer
    // and so we don't write the character or advance the head.
    if (i != _rx_buffer_tail) {
    2d72:	20 91 31 07 	lds	r18, 0x0731	; 0x800731 <Serial+0x1a>
    2d76:	82 17       	cp	r24, r18
    2d78:	51 f0       	breq	.+20     	; 0x2d8e <__vector_18+0x50>
      _rx_buffer[_rx_buffer_head] = c;
    2d7a:	e0 91 30 07 	lds	r30, 0x0730	; 0x800730 <Serial+0x19>
    2d7e:	f0 e0       	ldi	r31, 0x00	; 0
    2d80:	e9 5e       	subi	r30, 0xE9	; 233
    2d82:	f8 4f       	sbci	r31, 0xF8	; 248
    2d84:	95 8f       	std	Z+29, r25	; 0x1d
      _rx_buffer_head = i;
    2d86:	80 93 30 07 	sts	0x0730, r24	; 0x800730 <Serial+0x19>
    2d8a:	01 c0       	rjmp	.+2      	; 0x2d8e <__vector_18+0x50>
    }
  } else {
    // Parity error, read byte but discard it
    *_udr;
    2d8c:	80 81       	ld	r24, Z
    Serial._rx_complete_irq();
  }
    2d8e:	ff 91       	pop	r31
    2d90:	ef 91       	pop	r30
    2d92:	9f 91       	pop	r25
    2d94:	8f 91       	pop	r24
    2d96:	2f 91       	pop	r18
    2d98:	0f 90       	pop	r0
    2d9a:	0f be       	out	0x3f, r0	; 63
    2d9c:	0f 90       	pop	r0
    2d9e:	1f 90       	pop	r1
    2da0:	18 95       	reti

00002da2 <__vector_19>:
#elif defined(USART_UDRE_vect)
ISR(USART_UDRE_vect)
#else
  #error "Don't know what the Data Register Empty vector is called for Serial"
#endif
{
    2da2:	1f 92       	push	r1
    2da4:	0f 92       	push	r0
    2da6:	0f b6       	in	r0, 0x3f	; 63
    2da8:	0f 92       	push	r0
    2daa:	11 24       	eor	r1, r1
    2dac:	2f 93       	push	r18
    2dae:	3f 93       	push	r19
    2db0:	4f 93       	push	r20
    2db2:	5f 93       	push	r21
    2db4:	6f 93       	push	r22
    2db6:	7f 93       	push	r23
    2db8:	8f 93       	push	r24
    2dba:	9f 93       	push	r25
    2dbc:	af 93       	push	r26
    2dbe:	bf 93       	push	r27
    2dc0:	ef 93       	push	r30
    2dc2:	ff 93       	push	r31
  Serial._tx_udr_empty_irq();
    2dc4:	87 e1       	ldi	r24, 0x17	; 23
    2dc6:	97 e0       	ldi	r25, 0x07	; 7
    2dc8:	0e 94 b0 15 	call	0x2b60	; 0x2b60 <_ZN14HardwareSerial17_tx_udr_empty_irqEv>
}
    2dcc:	ff 91       	pop	r31
    2dce:	ef 91       	pop	r30
    2dd0:	bf 91       	pop	r27
    2dd2:	af 91       	pop	r26
    2dd4:	9f 91       	pop	r25
    2dd6:	8f 91       	pop	r24
    2dd8:	7f 91       	pop	r23
    2dda:	6f 91       	pop	r22
    2ddc:	5f 91       	pop	r21
    2dde:	4f 91       	pop	r20
    2de0:	3f 91       	pop	r19
    2de2:	2f 91       	pop	r18
    2de4:	0f 90       	pop	r0
    2de6:	0f be       	out	0x3f, r0	; 63
    2de8:	0f 90       	pop	r0
    2dea:	1f 90       	pop	r1
    2dec:	18 95       	reti

00002dee <_Z17Serial0_availablev>:
#endif

// Function that can be weakly referenced by serialEventRun to prevent
// pulling in this file if it's not otherwise used.
bool Serial0_available() {
  return Serial.available();
    2dee:	87 e1       	ldi	r24, 0x17	; 23
    2df0:	97 e0       	ldi	r25, 0x07	; 7
    2df2:	0e 94 65 15 	call	0x2aca	; 0x2aca <_ZN14HardwareSerial9availableEv>
    2df6:	21 e0       	ldi	r18, 0x01	; 1
    2df8:	89 2b       	or	r24, r25
    2dfa:	09 f4       	brne	.+2      	; 0x2dfe <_Z17Serial0_availablev+0x10>
    2dfc:	20 e0       	ldi	r18, 0x00	; 0
}
    2dfe:	82 2f       	mov	r24, r18
    2e00:	08 95       	ret

00002e02 <_GLOBAL__sub_I___vector_18>:
    size_t printNumber(unsigned long, uint8_t);
    size_t printFloat(double, uint8_t);
  protected:
    void setWriteError(int err = 1) { write_error = err; }
  public:
    Print() : write_error(0) {}
    2e02:	e7 e1       	ldi	r30, 0x17	; 23
    2e04:	f7 e0       	ldi	r31, 0x07	; 7
    2e06:	13 82       	std	Z+3, r1	; 0x03
    2e08:	12 82       	std	Z+2, r1	; 0x02
  public:
    virtual int available() = 0;
    virtual int read() = 0;
    virtual int peek() = 0;

    Stream() {_timeout=1000;}
    2e0a:	88 ee       	ldi	r24, 0xE8	; 232
    2e0c:	93 e0       	ldi	r25, 0x03	; 3
    2e0e:	a0 e0       	ldi	r26, 0x00	; 0
    2e10:	b0 e0       	ldi	r27, 0x00	; 0
    2e12:	84 83       	std	Z+4, r24	; 0x04
    2e14:	95 83       	std	Z+5, r25	; 0x05
    2e16:	a6 83       	std	Z+6, r26	; 0x06
    2e18:	b7 83       	std	Z+7, r27	; 0x07
  volatile uint8_t *ucsrc, volatile uint8_t *udr) :
    _ubrrh(ubrrh), _ubrrl(ubrrl),
    _ucsra(ucsra), _ucsrb(ucsrb), _ucsrc(ucsrc),
    _udr(udr),
    _rx_buffer_head(0), _rx_buffer_tail(0),
    _tx_buffer_head(0), _tx_buffer_tail(0)
    2e1a:	8f ec       	ldi	r24, 0xCF	; 207
    2e1c:	95 e0       	ldi	r25, 0x05	; 5
    2e1e:	91 83       	std	Z+1, r25	; 0x01
    2e20:	80 83       	st	Z, r24
    2e22:	85 ec       	ldi	r24, 0xC5	; 197
    2e24:	90 e0       	ldi	r25, 0x00	; 0
    2e26:	95 87       	std	Z+13, r25	; 0x0d
    2e28:	84 87       	std	Z+12, r24	; 0x0c
    2e2a:	84 ec       	ldi	r24, 0xC4	; 196
    2e2c:	90 e0       	ldi	r25, 0x00	; 0
    2e2e:	97 87       	std	Z+15, r25	; 0x0f
    2e30:	86 87       	std	Z+14, r24	; 0x0e
    2e32:	80 ec       	ldi	r24, 0xC0	; 192
    2e34:	90 e0       	ldi	r25, 0x00	; 0
    2e36:	91 8b       	std	Z+17, r25	; 0x11
    2e38:	80 8b       	std	Z+16, r24	; 0x10
    2e3a:	81 ec       	ldi	r24, 0xC1	; 193
    2e3c:	90 e0       	ldi	r25, 0x00	; 0
    2e3e:	93 8b       	std	Z+19, r25	; 0x13
    2e40:	82 8b       	std	Z+18, r24	; 0x12
    2e42:	82 ec       	ldi	r24, 0xC2	; 194
    2e44:	90 e0       	ldi	r25, 0x00	; 0
    2e46:	95 8b       	std	Z+21, r25	; 0x15
    2e48:	84 8b       	std	Z+20, r24	; 0x14
    2e4a:	86 ec       	ldi	r24, 0xC6	; 198
    2e4c:	90 e0       	ldi	r25, 0x00	; 0
    2e4e:	97 8b       	std	Z+23, r25	; 0x17
    2e50:	86 8b       	std	Z+22, r24	; 0x16
    2e52:	11 8e       	std	Z+25, r1	; 0x19
    2e54:	12 8e       	std	Z+26, r1	; 0x1a
    2e56:	13 8e       	std	Z+27, r1	; 0x1b
    2e58:	14 8e       	std	Z+28, r1	; 0x1c
    2e5a:	08 95       	ret

00002e5c <initVariant>:
// May be redefined by variant files.
void initVariant() __attribute__((weak));
void initVariant() { }

void setupUSB() __attribute__((weak));
void setupUSB() { }
    2e5c:	08 95       	ret

00002e5e <main>:

int main(void)
{
	init();
    2e5e:	0e 94 cc 18 	call	0x3198	; 0x3198 <init>

	initVariant();
    2e62:	0e 94 2e 17 	call	0x2e5c	; 0x2e5c <initVariant>

#if defined(USBCON)
	USBDevice.attach();
#endif
	
	setup();
    2e66:	0e 94 c7 04 	call	0x98e	; 0x98e <setup>
    
	for (;;) {
		loop();
		if (serialEventRun) serialEventRun();
    2e6a:	c2 ea       	ldi	r28, 0xA2	; 162
    2e6c:	d5 e1       	ldi	r29, 0x15	; 21
#endif
	
	setup();
    
	for (;;) {
		loop();
    2e6e:	0e 94 1d 05 	call	0xa3a	; 0xa3a <loop>
		if (serialEventRun) serialEventRun();
    2e72:	20 97       	sbiw	r28, 0x00	; 0
    2e74:	e1 f3       	breq	.-8      	; 0x2e6e <main+0x10>
    2e76:	0e 94 a2 15 	call	0x2b44	; 0x2b44 <_Z14serialEventRunv>
    2e7a:	f9 cf       	rjmp	.-14     	; 0x2e6e <main+0x10>

00002e7c <_ZN5Print5writeEPKhj>:
size_t Print::println(unsigned int num, int base)
{
  size_t n = print(num, base);
  n += println();
  return n;
}
    2e7c:	cf 92       	push	r12
    2e7e:	df 92       	push	r13
    2e80:	ef 92       	push	r14
    2e82:	ff 92       	push	r15
    2e84:	0f 93       	push	r16
    2e86:	1f 93       	push	r17
    2e88:	cf 93       	push	r28
    2e8a:	df 93       	push	r29
    2e8c:	6c 01       	movw	r12, r24
    2e8e:	7a 01       	movw	r14, r20
    2e90:	8b 01       	movw	r16, r22
    2e92:	c0 e0       	ldi	r28, 0x00	; 0
    2e94:	d0 e0       	ldi	r29, 0x00	; 0
    2e96:	ce 15       	cp	r28, r14
    2e98:	df 05       	cpc	r29, r15
    2e9a:	89 f0       	breq	.+34     	; 0x2ebe <_ZN5Print5writeEPKhj+0x42>
    2e9c:	d8 01       	movw	r26, r16
    2e9e:	6d 91       	ld	r22, X+
    2ea0:	8d 01       	movw	r16, r26
    2ea2:	d6 01       	movw	r26, r12
    2ea4:	ed 91       	ld	r30, X+
    2ea6:	fc 91       	ld	r31, X
    2ea8:	01 90       	ld	r0, Z+
    2eaa:	f0 81       	ld	r31, Z
    2eac:	e0 2d       	mov	r30, r0
    2eae:	c6 01       	movw	r24, r12
    2eb0:	09 95       	icall
    2eb2:	89 2b       	or	r24, r25
    2eb4:	11 f4       	brne	.+4      	; 0x2eba <_ZN5Print5writeEPKhj+0x3e>
    2eb6:	7e 01       	movw	r14, r28
    2eb8:	02 c0       	rjmp	.+4      	; 0x2ebe <_ZN5Print5writeEPKhj+0x42>
    2eba:	21 96       	adiw	r28, 0x01	; 1
    2ebc:	ec cf       	rjmp	.-40     	; 0x2e96 <_ZN5Print5writeEPKhj+0x1a>
    2ebe:	c7 01       	movw	r24, r14
    2ec0:	df 91       	pop	r29
    2ec2:	cf 91       	pop	r28
    2ec4:	1f 91       	pop	r17
    2ec6:	0f 91       	pop	r16
    2ec8:	ff 90       	pop	r15
    2eca:	ef 90       	pop	r14
    2ecc:	df 90       	pop	r13
    2ece:	cf 90       	pop	r12
    2ed0:	08 95       	ret

00002ed2 <_ZN5Print5writeEPKc>:
    2ed2:	61 15       	cp	r22, r1
    2ed4:	71 05       	cpc	r23, r1
    2ed6:	79 f0       	breq	.+30     	; 0x2ef6 <_ZN5Print5writeEPKc+0x24>
    2ed8:	fb 01       	movw	r30, r22
    2eda:	01 90       	ld	r0, Z+
    2edc:	00 20       	and	r0, r0
    2ede:	e9 f7       	brne	.-6      	; 0x2eda <_ZN5Print5writeEPKc+0x8>
    2ee0:	31 97       	sbiw	r30, 0x01	; 1
    2ee2:	af 01       	movw	r20, r30
    2ee4:	46 1b       	sub	r20, r22
    2ee6:	57 0b       	sbc	r21, r23
    2ee8:	dc 01       	movw	r26, r24
    2eea:	ed 91       	ld	r30, X+
    2eec:	fc 91       	ld	r31, X
    2eee:	02 80       	ldd	r0, Z+2	; 0x02
    2ef0:	f3 81       	ldd	r31, Z+3	; 0x03
    2ef2:	e0 2d       	mov	r30, r0
    2ef4:	09 94       	ijmp
    2ef6:	80 e0       	ldi	r24, 0x00	; 0
    2ef8:	90 e0       	ldi	r25, 0x00	; 0
    2efa:	08 95       	ret

00002efc <_ZN5Print5printERK6String>:
    2efc:	dc 01       	movw	r26, r24
    2efe:	ed 91       	ld	r30, X+
    2f00:	fc 91       	ld	r31, X
    2f02:	db 01       	movw	r26, r22
    2f04:	14 96       	adiw	r26, 0x04	; 4
    2f06:	4d 91       	ld	r20, X+
    2f08:	5c 91       	ld	r21, X
    2f0a:	15 97       	sbiw	r26, 0x05	; 5
    2f0c:	6d 91       	ld	r22, X+
    2f0e:	7c 91       	ld	r23, X
    2f10:	02 80       	ldd	r0, Z+2	; 0x02
    2f12:	f3 81       	ldd	r31, Z+3	; 0x03
    2f14:	e0 2d       	mov	r30, r0
    2f16:	09 94       	ijmp

00002f18 <_ZN5Print7printlnEv>:
    2f18:	6d ed       	ldi	r22, 0xDD	; 221
    2f1a:	75 e0       	ldi	r23, 0x05	; 5
    2f1c:	0c 94 69 17 	jmp	0x2ed2	; 0x2ed2 <_ZN5Print5writeEPKc>

00002f20 <_ZN5Print7printlnERK6String>:
    2f20:	0f 93       	push	r16
    2f22:	1f 93       	push	r17
    2f24:	cf 93       	push	r28
    2f26:	df 93       	push	r29
    2f28:	ec 01       	movw	r28, r24
    2f2a:	0e 94 7e 17 	call	0x2efc	; 0x2efc <_ZN5Print5printERK6String>
    2f2e:	8c 01       	movw	r16, r24
    2f30:	ce 01       	movw	r24, r28
    2f32:	0e 94 8c 17 	call	0x2f18	; 0x2f18 <_ZN5Print7printlnEv>
    2f36:	80 0f       	add	r24, r16
    2f38:	91 1f       	adc	r25, r17
    2f3a:	df 91       	pop	r29
    2f3c:	cf 91       	pop	r28
    2f3e:	1f 91       	pop	r17
    2f40:	0f 91       	pop	r16
    2f42:	08 95       	ret

00002f44 <_ZN5Print11printNumberEmh>:
    2f44:	8f 92       	push	r8
    2f46:	9f 92       	push	r9
    2f48:	af 92       	push	r10
    2f4a:	bf 92       	push	r11
    2f4c:	cf 92       	push	r12
    2f4e:	df 92       	push	r13
    2f50:	ef 92       	push	r14
    2f52:	ff 92       	push	r15
    2f54:	0f 93       	push	r16
    2f56:	1f 93       	push	r17
    2f58:	cf 93       	push	r28
    2f5a:	df 93       	push	r29
    2f5c:	cd b7       	in	r28, 0x3d	; 61
    2f5e:	de b7       	in	r29, 0x3e	; 62
    2f60:	a1 97       	sbiw	r28, 0x21	; 33
    2f62:	0f b6       	in	r0, 0x3f	; 63
    2f64:	f8 94       	cli
    2f66:	de bf       	out	0x3e, r29	; 62
    2f68:	0f be       	out	0x3f, r0	; 63
    2f6a:	cd bf       	out	0x3d, r28	; 61
    2f6c:	7c 01       	movw	r14, r24
    2f6e:	d4 2e       	mov	r13, r20
    2f70:	c5 2e       	mov	r12, r21
    2f72:	db 01       	movw	r26, r22
    2f74:	19 a2       	std	Y+33, r1	; 0x21
    2f76:	22 30       	cpi	r18, 0x02	; 2
    2f78:	08 f4       	brcc	.+2      	; 0x2f7c <_ZN5Print11printNumberEmh+0x38>
    2f7a:	2a e0       	ldi	r18, 0x0A	; 10
    2f7c:	8e 01       	movw	r16, r28
    2f7e:	0f 5d       	subi	r16, 0xDF	; 223
    2f80:	1f 4f       	sbci	r17, 0xFF	; 255
    2f82:	82 2e       	mov	r8, r18
    2f84:	91 2c       	mov	r9, r1
    2f86:	a1 2c       	mov	r10, r1
    2f88:	b1 2c       	mov	r11, r1
    2f8a:	6d 2d       	mov	r22, r13
    2f8c:	7c 2d       	mov	r23, r12
    2f8e:	cd 01       	movw	r24, r26
    2f90:	a5 01       	movw	r20, r10
    2f92:	94 01       	movw	r18, r8
    2f94:	0e 94 95 1b 	call	0x372a	; 0x372a <__udivmodsi4>
    2f98:	d2 2e       	mov	r13, r18
    2f9a:	c3 2e       	mov	r12, r19
    2f9c:	da 01       	movw	r26, r20
    2f9e:	01 50       	subi	r16, 0x01	; 1
    2fa0:	11 09       	sbc	r17, r1
    2fa2:	6a 30       	cpi	r22, 0x0A	; 10
    2fa4:	71 05       	cpc	r23, r1
    2fa6:	81 05       	cpc	r24, r1
    2fa8:	91 05       	cpc	r25, r1
    2faa:	10 f4       	brcc	.+4      	; 0x2fb0 <_ZN5Print11printNumberEmh+0x6c>
    2fac:	60 5d       	subi	r22, 0xD0	; 208
    2fae:	01 c0       	rjmp	.+2      	; 0x2fb2 <_ZN5Print11printNumberEmh+0x6e>
    2fb0:	69 5c       	subi	r22, 0xC9	; 201
    2fb2:	f8 01       	movw	r30, r16
    2fb4:	60 83       	st	Z, r22
    2fb6:	23 2b       	or	r18, r19
    2fb8:	24 2b       	or	r18, r20
    2fba:	25 2b       	or	r18, r21
    2fbc:	31 f7       	brne	.-52     	; 0x2f8a <_ZN5Print11printNumberEmh+0x46>
    2fbe:	b8 01       	movw	r22, r16
    2fc0:	c7 01       	movw	r24, r14
    2fc2:	0e 94 69 17 	call	0x2ed2	; 0x2ed2 <_ZN5Print5writeEPKc>
    2fc6:	a1 96       	adiw	r28, 0x21	; 33
    2fc8:	0f b6       	in	r0, 0x3f	; 63
    2fca:	f8 94       	cli
    2fcc:	de bf       	out	0x3e, r29	; 62
    2fce:	0f be       	out	0x3f, r0	; 63
    2fd0:	cd bf       	out	0x3d, r28	; 61
    2fd2:	df 91       	pop	r29
    2fd4:	cf 91       	pop	r28
    2fd6:	1f 91       	pop	r17
    2fd8:	0f 91       	pop	r16
    2fda:	ff 90       	pop	r15
    2fdc:	ef 90       	pop	r14
    2fde:	df 90       	pop	r13
    2fe0:	cf 90       	pop	r12
    2fe2:	bf 90       	pop	r11
    2fe4:	af 90       	pop	r10
    2fe6:	9f 90       	pop	r9
    2fe8:	8f 90       	pop	r8
    2fea:	08 95       	ret

00002fec <_ZN5Print5printEmi>:
    2fec:	21 15       	cp	r18, r1
    2fee:	31 05       	cpc	r19, r1
    2ff0:	41 f4       	brne	.+16     	; 0x3002 <_ZN5Print5printEmi+0x16>
    2ff2:	dc 01       	movw	r26, r24
    2ff4:	ed 91       	ld	r30, X+
    2ff6:	fc 91       	ld	r31, X
    2ff8:	01 90       	ld	r0, Z+
    2ffa:	f0 81       	ld	r31, Z
    2ffc:	e0 2d       	mov	r30, r0
    2ffe:	64 2f       	mov	r22, r20
    3000:	09 94       	ijmp
    3002:	0c 94 a2 17 	jmp	0x2f44	; 0x2f44 <_ZN5Print11printNumberEmh>

00003006 <_ZN5Print7printlnEmi>:
  n += println();
  return n;
}

size_t Print::println(unsigned long num, int base)
{
    3006:	0f 93       	push	r16
    3008:	1f 93       	push	r17
    300a:	cf 93       	push	r28
    300c:	df 93       	push	r29
    300e:	ec 01       	movw	r28, r24
  size_t n = print(num, base);
    3010:	0e 94 f6 17 	call	0x2fec	; 0x2fec <_ZN5Print5printEmi>
    3014:	8c 01       	movw	r16, r24
  n += println();
    3016:	ce 01       	movw	r24, r28
    3018:	0e 94 8c 17 	call	0x2f18	; 0x2f18 <_ZN5Print7printlnEv>
  return n;
}
    301c:	80 0f       	add	r24, r16
    301e:	91 1f       	adc	r25, r17
    3020:	df 91       	pop	r29
    3022:	cf 91       	pop	r28
    3024:	1f 91       	pop	r17
    3026:	0f 91       	pop	r16
    3028:	08 95       	ret

0000302a <__vector_16>:
	

#endif

	// busy wait
	__asm__ __volatile__ (
    302a:	1f 92       	push	r1
    302c:	0f 92       	push	r0
    302e:	0f b6       	in	r0, 0x3f	; 63
    3030:	0f 92       	push	r0
    3032:	11 24       	eor	r1, r1
    3034:	2f 93       	push	r18
    3036:	3f 93       	push	r19
    3038:	8f 93       	push	r24
    303a:	9f 93       	push	r25
    303c:	af 93       	push	r26
    303e:	bf 93       	push	r27
    3040:	80 91 b5 07 	lds	r24, 0x07B5	; 0x8007b5 <timer0_millis>
    3044:	90 91 b6 07 	lds	r25, 0x07B6	; 0x8007b6 <timer0_millis+0x1>
    3048:	a0 91 b7 07 	lds	r26, 0x07B7	; 0x8007b7 <timer0_millis+0x2>
    304c:	b0 91 b8 07 	lds	r27, 0x07B8	; 0x8007b8 <timer0_millis+0x3>
    3050:	30 91 b4 07 	lds	r19, 0x07B4	; 0x8007b4 <timer0_fract>
    3054:	23 e0       	ldi	r18, 0x03	; 3
    3056:	23 0f       	add	r18, r19
    3058:	2d 37       	cpi	r18, 0x7D	; 125
    305a:	20 f4       	brcc	.+8      	; 0x3064 <__vector_16+0x3a>
    305c:	01 96       	adiw	r24, 0x01	; 1
    305e:	a1 1d       	adc	r26, r1
    3060:	b1 1d       	adc	r27, r1
    3062:	05 c0       	rjmp	.+10     	; 0x306e <__vector_16+0x44>
    3064:	26 e8       	ldi	r18, 0x86	; 134
    3066:	23 0f       	add	r18, r19
    3068:	02 96       	adiw	r24, 0x02	; 2
    306a:	a1 1d       	adc	r26, r1
    306c:	b1 1d       	adc	r27, r1
    306e:	20 93 b4 07 	sts	0x07B4, r18	; 0x8007b4 <timer0_fract>
    3072:	80 93 b5 07 	sts	0x07B5, r24	; 0x8007b5 <timer0_millis>
    3076:	90 93 b6 07 	sts	0x07B6, r25	; 0x8007b6 <timer0_millis+0x1>
    307a:	a0 93 b7 07 	sts	0x07B7, r26	; 0x8007b7 <timer0_millis+0x2>
    307e:	b0 93 b8 07 	sts	0x07B8, r27	; 0x8007b8 <timer0_millis+0x3>
    3082:	80 91 b9 07 	lds	r24, 0x07B9	; 0x8007b9 <timer0_overflow_count>
    3086:	90 91 ba 07 	lds	r25, 0x07BA	; 0x8007ba <timer0_overflow_count+0x1>
    308a:	a0 91 bb 07 	lds	r26, 0x07BB	; 0x8007bb <timer0_overflow_count+0x2>
    308e:	b0 91 bc 07 	lds	r27, 0x07BC	; 0x8007bc <timer0_overflow_count+0x3>
    3092:	01 96       	adiw	r24, 0x01	; 1
    3094:	a1 1d       	adc	r26, r1
    3096:	b1 1d       	adc	r27, r1
    3098:	80 93 b9 07 	sts	0x07B9, r24	; 0x8007b9 <timer0_overflow_count>
    309c:	90 93 ba 07 	sts	0x07BA, r25	; 0x8007ba <timer0_overflow_count+0x1>
    30a0:	a0 93 bb 07 	sts	0x07BB, r26	; 0x8007bb <timer0_overflow_count+0x2>
    30a4:	b0 93 bc 07 	sts	0x07BC, r27	; 0x8007bc <timer0_overflow_count+0x3>
    30a8:	bf 91       	pop	r27
    30aa:	af 91       	pop	r26
    30ac:	9f 91       	pop	r25
    30ae:	8f 91       	pop	r24
    30b0:	3f 91       	pop	r19
    30b2:	2f 91       	pop	r18
    30b4:	0f 90       	pop	r0
    30b6:	0f be       	out	0x3f, r0	; 63
    30b8:	0f 90       	pop	r0
    30ba:	1f 90       	pop	r1
    30bc:	18 95       	reti

000030be <millis>:
    30be:	2f b7       	in	r18, 0x3f	; 63
    30c0:	f8 94       	cli
    30c2:	60 91 b5 07 	lds	r22, 0x07B5	; 0x8007b5 <timer0_millis>
    30c6:	70 91 b6 07 	lds	r23, 0x07B6	; 0x8007b6 <timer0_millis+0x1>
    30ca:	80 91 b7 07 	lds	r24, 0x07B7	; 0x8007b7 <timer0_millis+0x2>
    30ce:	90 91 b8 07 	lds	r25, 0x07B8	; 0x8007b8 <timer0_millis+0x3>
    30d2:	2f bf       	out	0x3f, r18	; 63
    30d4:	08 95       	ret

000030d6 <micros>:
    30d6:	3f b7       	in	r19, 0x3f	; 63
    30d8:	f8 94       	cli
    30da:	80 91 b9 07 	lds	r24, 0x07B9	; 0x8007b9 <timer0_overflow_count>
    30de:	90 91 ba 07 	lds	r25, 0x07BA	; 0x8007ba <timer0_overflow_count+0x1>
    30e2:	a0 91 bb 07 	lds	r26, 0x07BB	; 0x8007bb <timer0_overflow_count+0x2>
    30e6:	b0 91 bc 07 	lds	r27, 0x07BC	; 0x8007bc <timer0_overflow_count+0x3>
    30ea:	26 b5       	in	r18, 0x26	; 38
    30ec:	a8 9b       	sbis	0x15, 0	; 21
    30ee:	05 c0       	rjmp	.+10     	; 0x30fa <micros+0x24>
    30f0:	2f 3f       	cpi	r18, 0xFF	; 255
    30f2:	19 f0       	breq	.+6      	; 0x30fa <micros+0x24>
    30f4:	01 96       	adiw	r24, 0x01	; 1
    30f6:	a1 1d       	adc	r26, r1
    30f8:	b1 1d       	adc	r27, r1
    30fa:	3f bf       	out	0x3f, r19	; 63
    30fc:	ba 2f       	mov	r27, r26
    30fe:	a9 2f       	mov	r26, r25
    3100:	98 2f       	mov	r25, r24
    3102:	88 27       	eor	r24, r24
    3104:	82 0f       	add	r24, r18
    3106:	91 1d       	adc	r25, r1
    3108:	a1 1d       	adc	r26, r1
    310a:	b1 1d       	adc	r27, r1
    310c:	bc 01       	movw	r22, r24
    310e:	cd 01       	movw	r24, r26
    3110:	42 e0       	ldi	r20, 0x02	; 2
    3112:	66 0f       	add	r22, r22
    3114:	77 1f       	adc	r23, r23
    3116:	88 1f       	adc	r24, r24
    3118:	99 1f       	adc	r25, r25
    311a:	4a 95       	dec	r20
    311c:	d1 f7       	brne	.-12     	; 0x3112 <micros+0x3c>
    311e:	08 95       	ret

00003120 <delay>:
    3120:	8f 92       	push	r8
    3122:	9f 92       	push	r9
    3124:	af 92       	push	r10
    3126:	bf 92       	push	r11
    3128:	cf 92       	push	r12
    312a:	df 92       	push	r13
    312c:	ef 92       	push	r14
    312e:	ff 92       	push	r15
    3130:	6b 01       	movw	r12, r22
    3132:	7c 01       	movw	r14, r24
    3134:	0e 94 6b 18 	call	0x30d6	; 0x30d6 <micros>
    3138:	4b 01       	movw	r8, r22
    313a:	5c 01       	movw	r10, r24
    313c:	c1 14       	cp	r12, r1
    313e:	d1 04       	cpc	r13, r1
    3140:	e1 04       	cpc	r14, r1
    3142:	f1 04       	cpc	r15, r1
    3144:	01 f1       	breq	.+64     	; 0x3186 <delay+0x66>
    3146:	0e 94 94 1b 	call	0x3728	; 0x3728 <yield>
    314a:	0e 94 6b 18 	call	0x30d6	; 0x30d6 <micros>
    314e:	dc 01       	movw	r26, r24
    3150:	cb 01       	movw	r24, r22
    3152:	88 19       	sub	r24, r8
    3154:	99 09       	sbc	r25, r9
    3156:	aa 09       	sbc	r26, r10
    3158:	bb 09       	sbc	r27, r11
    315a:	88 3e       	cpi	r24, 0xE8	; 232
    315c:	93 40       	sbci	r25, 0x03	; 3
    315e:	a1 05       	cpc	r26, r1
    3160:	b1 05       	cpc	r27, r1
    3162:	60 f3       	brcs	.-40     	; 0x313c <delay+0x1c>
    3164:	21 e0       	ldi	r18, 0x01	; 1
    3166:	c2 1a       	sub	r12, r18
    3168:	d1 08       	sbc	r13, r1
    316a:	e1 08       	sbc	r14, r1
    316c:	f1 08       	sbc	r15, r1
    316e:	88 ee       	ldi	r24, 0xE8	; 232
    3170:	88 0e       	add	r8, r24
    3172:	83 e0       	ldi	r24, 0x03	; 3
    3174:	98 1e       	adc	r9, r24
    3176:	a1 1c       	adc	r10, r1
    3178:	b1 1c       	adc	r11, r1
    317a:	c1 14       	cp	r12, r1
    317c:	d1 04       	cpc	r13, r1
    317e:	e1 04       	cpc	r14, r1
    3180:	f1 04       	cpc	r15, r1
    3182:	19 f7       	brne	.-58     	; 0x314a <delay+0x2a>
    3184:	db cf       	rjmp	.-74     	; 0x313c <delay+0x1c>
    3186:	ff 90       	pop	r15
    3188:	ef 90       	pop	r14
    318a:	df 90       	pop	r13
    318c:	cf 90       	pop	r12
    318e:	bf 90       	pop	r11
    3190:	af 90       	pop	r10
    3192:	9f 90       	pop	r9
    3194:	8f 90       	pop	r8
    3196:	08 95       	ret

00003198 <init>:

void init()
{
	// this needs to be called before setup() or some functions won't
	// work there
	sei();
    3198:	78 94       	sei
	
	// on the ATmega168, timer 0 is also used for fast hardware pwm
	// (using phase-correct PWM would mean that timer 0 overflowed half as often
	// resulting in different millis() behavior on the ATmega8 and ATmega168)
#if defined(TCCR0A) && defined(WGM01)
	sbi(TCCR0A, WGM01);
    319a:	84 b5       	in	r24, 0x24	; 36
    319c:	82 60       	ori	r24, 0x02	; 2
    319e:	84 bd       	out	0x24, r24	; 36
	sbi(TCCR0A, WGM00);
    31a0:	84 b5       	in	r24, 0x24	; 36
    31a2:	81 60       	ori	r24, 0x01	; 1
    31a4:	84 bd       	out	0x24, r24	; 36
	// this combination is for the standard atmega8
	sbi(TCCR0, CS01);
	sbi(TCCR0, CS00);
#elif defined(TCCR0B) && defined(CS01) && defined(CS00)
	// this combination is for the standard 168/328/1280/2560
	sbi(TCCR0B, CS01);
    31a6:	85 b5       	in	r24, 0x25	; 37
    31a8:	82 60       	ori	r24, 0x02	; 2
    31aa:	85 bd       	out	0x25, r24	; 37
	sbi(TCCR0B, CS00);
    31ac:	85 b5       	in	r24, 0x25	; 37
    31ae:	81 60       	ori	r24, 0x01	; 1
    31b0:	85 bd       	out	0x25, r24	; 37

	// enable timer 0 overflow interrupt
#if defined(TIMSK) && defined(TOIE0)
	sbi(TIMSK, TOIE0);
#elif defined(TIMSK0) && defined(TOIE0)
	sbi(TIMSK0, TOIE0);
    31b2:	ee e6       	ldi	r30, 0x6E	; 110
    31b4:	f0 e0       	ldi	r31, 0x00	; 0
    31b6:	80 81       	ld	r24, Z
    31b8:	81 60       	ori	r24, 0x01	; 1
    31ba:	80 83       	st	Z, r24
	// this is better for motors as it ensures an even waveform
	// note, however, that fast pwm mode can achieve a frequency of up
	// 8 MHz (with a 16 MHz clock) at 50% duty cycle

#if defined(TCCR1B) && defined(CS11) && defined(CS10)
	TCCR1B = 0;
    31bc:	e1 e8       	ldi	r30, 0x81	; 129
    31be:	f0 e0       	ldi	r31, 0x00	; 0
    31c0:	10 82       	st	Z, r1

	// set timer 1 prescale factor to 64
	sbi(TCCR1B, CS11);
    31c2:	80 81       	ld	r24, Z
    31c4:	82 60       	ori	r24, 0x02	; 2
    31c6:	80 83       	st	Z, r24
#if F_CPU >= 8000000L
	sbi(TCCR1B, CS10);
    31c8:	80 81       	ld	r24, Z
    31ca:	81 60       	ori	r24, 0x01	; 1
    31cc:	80 83       	st	Z, r24
	sbi(TCCR1, CS10);
#endif
#endif
	// put timer 1 in 8-bit phase correct pwm mode
#if defined(TCCR1A) && defined(WGM10)
	sbi(TCCR1A, WGM10);
    31ce:	e0 e8       	ldi	r30, 0x80	; 128
    31d0:	f0 e0       	ldi	r31, 0x00	; 0
    31d2:	80 81       	ld	r24, Z
    31d4:	81 60       	ori	r24, 0x01	; 1
    31d6:	80 83       	st	Z, r24

	// set timer 2 prescale factor to 64
#if defined(TCCR2) && defined(CS22)
	sbi(TCCR2, CS22);
#elif defined(TCCR2B) && defined(CS22)
	sbi(TCCR2B, CS22);
    31d8:	e1 eb       	ldi	r30, 0xB1	; 177
    31da:	f0 e0       	ldi	r31, 0x00	; 0
    31dc:	80 81       	ld	r24, Z
    31de:	84 60       	ori	r24, 0x04	; 4
    31e0:	80 83       	st	Z, r24

	// configure timer 2 for phase correct pwm (8-bit)
#if defined(TCCR2) && defined(WGM20)
	sbi(TCCR2, WGM20);
#elif defined(TCCR2A) && defined(WGM20)
	sbi(TCCR2A, WGM20);
    31e2:	e0 eb       	ldi	r30, 0xB0	; 176
    31e4:	f0 e0       	ldi	r31, 0x00	; 0
    31e6:	80 81       	ld	r24, Z
    31e8:	81 60       	ori	r24, 0x01	; 1
    31ea:	80 83       	st	Z, r24
#endif

#if defined(ADCSRA)
	// set a2d prescaler so we are inside the desired 50-200 KHz range.
	#if F_CPU >= 16000000 // 16 MHz / 128 = 125 KHz
		sbi(ADCSRA, ADPS2);
    31ec:	ea e7       	ldi	r30, 0x7A	; 122
    31ee:	f0 e0       	ldi	r31, 0x00	; 0
    31f0:	80 81       	ld	r24, Z
    31f2:	84 60       	ori	r24, 0x04	; 4
    31f4:	80 83       	st	Z, r24
		sbi(ADCSRA, ADPS1);
    31f6:	80 81       	ld	r24, Z
    31f8:	82 60       	ori	r24, 0x02	; 2
    31fa:	80 83       	st	Z, r24
		sbi(ADCSRA, ADPS0);
    31fc:	80 81       	ld	r24, Z
    31fe:	81 60       	ori	r24, 0x01	; 1
    3200:	80 83       	st	Z, r24
		cbi(ADCSRA, ADPS2);
		cbi(ADCSRA, ADPS1);
		sbi(ADCSRA, ADPS0);
	#endif
	// enable a2d conversions
	sbi(ADCSRA, ADEN);
    3202:	80 81       	ld	r24, Z
    3204:	80 68       	ori	r24, 0x80	; 128
    3206:	80 83       	st	Z, r24
	// here so they can be used as normal digital i/o; they will be
	// reconnected in Serial.begin()
#if defined(UCSRB)
	UCSRB = 0;
#elif defined(UCSR0B)
	UCSR0B = 0;
    3208:	10 92 c1 00 	sts	0x00C1, r1	; 0x8000c1 <__TEXT_REGION_LENGTH__+0x7e00c1>
    320c:	08 95       	ret

0000320e <turnOffPWM>:
//
//static inline void turnOffPWM(uint8_t timer) __attribute__ ((always_inline));
//static inline void turnOffPWM(uint8_t timer)
static void turnOffPWM(uint8_t timer)
{
	switch (timer)
    320e:	83 30       	cpi	r24, 0x03	; 3
    3210:	81 f0       	breq	.+32     	; 0x3232 <turnOffPWM+0x24>
    3212:	28 f4       	brcc	.+10     	; 0x321e <turnOffPWM+0x10>
    3214:	81 30       	cpi	r24, 0x01	; 1
    3216:	99 f0       	breq	.+38     	; 0x323e <turnOffPWM+0x30>
    3218:	82 30       	cpi	r24, 0x02	; 2
    321a:	a1 f0       	breq	.+40     	; 0x3244 <turnOffPWM+0x36>
    321c:	08 95       	ret
    321e:	87 30       	cpi	r24, 0x07	; 7
    3220:	a9 f0       	breq	.+42     	; 0x324c <turnOffPWM+0x3e>
    3222:	88 30       	cpi	r24, 0x08	; 8
    3224:	b9 f0       	breq	.+46     	; 0x3254 <turnOffPWM+0x46>
    3226:	84 30       	cpi	r24, 0x04	; 4
    3228:	d1 f4       	brne	.+52     	; 0x325e <turnOffPWM+0x50>
	{
		#if defined(TCCR1A) && defined(COM1A1)
		case TIMER1A:   cbi(TCCR1A, COM1A1);    break;
		#endif
		#if defined(TCCR1A) && defined(COM1B1)
		case TIMER1B:   cbi(TCCR1A, COM1B1);    break;
    322a:	80 91 80 00 	lds	r24, 0x0080	; 0x800080 <__TEXT_REGION_LENGTH__+0x7e0080>
    322e:	8f 7d       	andi	r24, 0xDF	; 223
    3230:	03 c0       	rjmp	.+6      	; 0x3238 <turnOffPWM+0x2a>
static void turnOffPWM(uint8_t timer)
{
	switch (timer)
	{
		#if defined(TCCR1A) && defined(COM1A1)
		case TIMER1A:   cbi(TCCR1A, COM1A1);    break;
    3232:	80 91 80 00 	lds	r24, 0x0080	; 0x800080 <__TEXT_REGION_LENGTH__+0x7e0080>
    3236:	8f 77       	andi	r24, 0x7F	; 127
		#endif
		#if defined(TCCR1A) && defined(COM1B1)
		case TIMER1B:   cbi(TCCR1A, COM1B1);    break;
    3238:	80 93 80 00 	sts	0x0080, r24	; 0x800080 <__TEXT_REGION_LENGTH__+0x7e0080>
    323c:	08 95       	ret
		#if defined(TCCR2) && defined(COM21)
		case  TIMER2:   cbi(TCCR2, COM21);      break;
		#endif
		
		#if defined(TCCR0A) && defined(COM0A1)
		case  TIMER0A:  cbi(TCCR0A, COM0A1);    break;
    323e:	84 b5       	in	r24, 0x24	; 36
    3240:	8f 77       	andi	r24, 0x7F	; 127
    3242:	02 c0       	rjmp	.+4      	; 0x3248 <turnOffPWM+0x3a>
		#endif
		
		#if defined(TCCR0A) && defined(COM0B1)
		case  TIMER0B:  cbi(TCCR0A, COM0B1);    break;
    3244:	84 b5       	in	r24, 0x24	; 36
    3246:	8f 7d       	andi	r24, 0xDF	; 223
    3248:	84 bd       	out	0x24, r24	; 36
    324a:	08 95       	ret
		#endif
		#if defined(TCCR2A) && defined(COM2A1)
		case  TIMER2A:  cbi(TCCR2A, COM2A1);    break;
    324c:	80 91 b0 00 	lds	r24, 0x00B0	; 0x8000b0 <__TEXT_REGION_LENGTH__+0x7e00b0>
    3250:	8f 77       	andi	r24, 0x7F	; 127
    3252:	03 c0       	rjmp	.+6      	; 0x325a <turnOffPWM+0x4c>
		#endif
		#if defined(TCCR2A) && defined(COM2B1)
		case  TIMER2B:  cbi(TCCR2A, COM2B1);    break;
    3254:	80 91 b0 00 	lds	r24, 0x00B0	; 0x8000b0 <__TEXT_REGION_LENGTH__+0x7e00b0>
    3258:	8f 7d       	andi	r24, 0xDF	; 223
    325a:	80 93 b0 00 	sts	0x00B0, r24	; 0x8000b0 <__TEXT_REGION_LENGTH__+0x7e00b0>
    325e:	08 95       	ret

00003260 <pinMode>:
#define ARDUINO_MAIN
#include "wiring_private.h"
#include "pins_arduino.h"

void pinMode(uint8_t pin, uint8_t mode)
{
    3260:	cf 93       	push	r28
    3262:	df 93       	push	r29
	uint8_t bit = digitalPinToBitMask(pin);
    3264:	90 e0       	ldi	r25, 0x00	; 0
    3266:	fc 01       	movw	r30, r24
    3268:	e4 58       	subi	r30, 0x84	; 132
    326a:	fa 4f       	sbci	r31, 0xFA	; 250
    326c:	24 91       	lpm	r18, Z
	uint8_t port = digitalPinToPort(pin);
    326e:	fc 01       	movw	r30, r24
    3270:	e0 57       	subi	r30, 0x70	; 112
    3272:	fa 4f       	sbci	r31, 0xFA	; 250
    3274:	84 91       	lpm	r24, Z
	volatile uint8_t *reg, *out;

	if (port == NOT_A_PIN) return;
    3276:	88 23       	and	r24, r24
    3278:	61 f1       	breq	.+88     	; 0x32d2 <pinMode+0x72>

	// JWS: can I let the optimizer do this?
	reg = portModeRegister(port);
    327a:	90 e0       	ldi	r25, 0x00	; 0
    327c:	88 0f       	add	r24, r24
    327e:	99 1f       	adc	r25, r25
    3280:	fc 01       	movw	r30, r24
    3282:	e2 55       	subi	r30, 0x52	; 82
    3284:	fa 4f       	sbci	r31, 0xFA	; 250
    3286:	c5 91       	lpm	r28, Z+
    3288:	d4 91       	lpm	r29, Z
	out = portOutputRegister(port);
    328a:	fc 01       	movw	r30, r24
    328c:	ec 55       	subi	r30, 0x5C	; 92
    328e:	fa 4f       	sbci	r31, 0xFA	; 250
    3290:	a5 91       	lpm	r26, Z+
    3292:	b4 91       	lpm	r27, Z

	if (mode == INPUT) { 
    3294:	61 11       	cpse	r22, r1
    3296:	09 c0       	rjmp	.+18     	; 0x32aa <pinMode+0x4a>
		uint8_t oldSREG = SREG;
    3298:	9f b7       	in	r25, 0x3f	; 63
                cli();
    329a:	f8 94       	cli
		*reg &= ~bit;
    329c:	88 81       	ld	r24, Y
    329e:	20 95       	com	r18
    32a0:	82 23       	and	r24, r18
    32a2:	88 83       	st	Y, r24
		*out &= ~bit;
    32a4:	ec 91       	ld	r30, X
    32a6:	2e 23       	and	r18, r30
    32a8:	0b c0       	rjmp	.+22     	; 0x32c0 <pinMode+0x60>
		SREG = oldSREG;
	} else if (mode == INPUT_PULLUP) {
    32aa:	62 30       	cpi	r22, 0x02	; 2
    32ac:	61 f4       	brne	.+24     	; 0x32c6 <pinMode+0x66>
		uint8_t oldSREG = SREG;
    32ae:	9f b7       	in	r25, 0x3f	; 63
                cli();
    32b0:	f8 94       	cli
		*reg &= ~bit;
    32b2:	38 81       	ld	r19, Y
    32b4:	82 2f       	mov	r24, r18
    32b6:	80 95       	com	r24
    32b8:	83 23       	and	r24, r19
    32ba:	88 83       	st	Y, r24
		*out |= bit;
    32bc:	ec 91       	ld	r30, X
    32be:	2e 2b       	or	r18, r30
    32c0:	2c 93       	st	X, r18
		SREG = oldSREG;
    32c2:	9f bf       	out	0x3f, r25	; 63
    32c4:	06 c0       	rjmp	.+12     	; 0x32d2 <pinMode+0x72>
	} else {
		uint8_t oldSREG = SREG;
    32c6:	8f b7       	in	r24, 0x3f	; 63
                cli();
    32c8:	f8 94       	cli
		*reg |= bit;
    32ca:	e8 81       	ld	r30, Y
    32cc:	2e 2b       	or	r18, r30
    32ce:	28 83       	st	Y, r18
		SREG = oldSREG;
    32d0:	8f bf       	out	0x3f, r24	; 63
	}
}
    32d2:	df 91       	pop	r29
    32d4:	cf 91       	pop	r28
    32d6:	08 95       	ret

000032d8 <digitalWrite>:
		#endif
	}
}

void digitalWrite(uint8_t pin, uint8_t val)
{
    32d8:	1f 93       	push	r17
    32da:	cf 93       	push	r28
    32dc:	df 93       	push	r29
	uint8_t timer = digitalPinToTimer(pin);
    32de:	28 2f       	mov	r18, r24
    32e0:	30 e0       	ldi	r19, 0x00	; 0
    32e2:	f9 01       	movw	r30, r18
    32e4:	e8 59       	subi	r30, 0x98	; 152
    32e6:	fa 4f       	sbci	r31, 0xFA	; 250
    32e8:	84 91       	lpm	r24, Z
	uint8_t bit = digitalPinToBitMask(pin);
    32ea:	f9 01       	movw	r30, r18
    32ec:	e4 58       	subi	r30, 0x84	; 132
    32ee:	fa 4f       	sbci	r31, 0xFA	; 250
    32f0:	d4 91       	lpm	r29, Z
	uint8_t port = digitalPinToPort(pin);
    32f2:	f9 01       	movw	r30, r18
    32f4:	e0 57       	subi	r30, 0x70	; 112
    32f6:	fa 4f       	sbci	r31, 0xFA	; 250
    32f8:	c4 91       	lpm	r28, Z
	volatile uint8_t *out;

	if (port == NOT_A_PIN) return;
    32fa:	cc 23       	and	r28, r28
    32fc:	c9 f0       	breq	.+50     	; 0x3330 <digitalWrite+0x58>
    32fe:	16 2f       	mov	r17, r22

	// If the pin that support PWM output, we need to turn it off
	// before doing a digital write.
	if (timer != NOT_ON_TIMER) turnOffPWM(timer);
    3300:	81 11       	cpse	r24, r1
    3302:	0e 94 07 19 	call	0x320e	; 0x320e <turnOffPWM>

	out = portOutputRegister(port);
    3306:	ec 2f       	mov	r30, r28
    3308:	f0 e0       	ldi	r31, 0x00	; 0
    330a:	ee 0f       	add	r30, r30
    330c:	ff 1f       	adc	r31, r31
    330e:	ec 55       	subi	r30, 0x5C	; 92
    3310:	fa 4f       	sbci	r31, 0xFA	; 250
    3312:	a5 91       	lpm	r26, Z+
    3314:	b4 91       	lpm	r27, Z

	uint8_t oldSREG = SREG;
    3316:	8f b7       	in	r24, 0x3f	; 63
	cli();
    3318:	f8 94       	cli

	if (val == LOW) {
    331a:	11 11       	cpse	r17, r1
    331c:	05 c0       	rjmp	.+10     	; 0x3328 <digitalWrite+0x50>
		*out &= ~bit;
    331e:	9c 91       	ld	r25, X
    3320:	ed 2f       	mov	r30, r29
    3322:	e0 95       	com	r30
    3324:	e9 23       	and	r30, r25
    3326:	02 c0       	rjmp	.+4      	; 0x332c <digitalWrite+0x54>
	} else {
		*out |= bit;
    3328:	ec 91       	ld	r30, X
    332a:	ed 2b       	or	r30, r29
    332c:	ec 93       	st	X, r30
	}

	SREG = oldSREG;
    332e:	8f bf       	out	0x3f, r24	; 63
}
    3330:	df 91       	pop	r29
    3332:	cf 91       	pop	r28
    3334:	1f 91       	pop	r17
    3336:	08 95       	ret

00003338 <_ZNK6String14StringIfHelperEv>:
{
	if (!buffer) return;
	for (char *p = buffer; *p; p++) {
		*p = tolower(*p);
	}
}
    3338:	08 95       	ret

0000333a <_ZN6StringD1Ev>:
    333a:	fc 01       	movw	r30, r24
    333c:	80 81       	ld	r24, Z
    333e:	91 81       	ldd	r25, Z+1	; 0x01
    3340:	0c 94 87 1c 	jmp	0x390e	; 0x390e <free>

00003344 <_ZN6String10invalidateEv>:
    3344:	cf 93       	push	r28
    3346:	df 93       	push	r29
    3348:	ec 01       	movw	r28, r24
    334a:	88 81       	ld	r24, Y
    334c:	99 81       	ldd	r25, Y+1	; 0x01
    334e:	00 97       	sbiw	r24, 0x00	; 0
    3350:	11 f0       	breq	.+4      	; 0x3356 <_ZN6String10invalidateEv+0x12>
    3352:	0e 94 87 1c 	call	0x390e	; 0x390e <free>
    3356:	19 82       	std	Y+1, r1	; 0x01
    3358:	18 82       	st	Y, r1
    335a:	1d 82       	std	Y+5, r1	; 0x05
    335c:	1c 82       	std	Y+4, r1	; 0x04
    335e:	1b 82       	std	Y+3, r1	; 0x03
    3360:	1a 82       	std	Y+2, r1	; 0x02
    3362:	df 91       	pop	r29
    3364:	cf 91       	pop	r28
    3366:	08 95       	ret

00003368 <_ZN6String12changeBufferEj>:
    3368:	0f 93       	push	r16
    336a:	1f 93       	push	r17
    336c:	cf 93       	push	r28
    336e:	df 93       	push	r29
    3370:	ec 01       	movw	r28, r24
    3372:	8b 01       	movw	r16, r22
    3374:	6f 5f       	subi	r22, 0xFF	; 255
    3376:	7f 4f       	sbci	r23, 0xFF	; 255
    3378:	88 81       	ld	r24, Y
    337a:	99 81       	ldd	r25, Y+1	; 0x01
    337c:	0e 94 1f 1d 	call	0x3a3e	; 0x3a3e <realloc>
    3380:	00 97       	sbiw	r24, 0x00	; 0
    3382:	31 f0       	breq	.+12     	; 0x3390 <_ZN6String12changeBufferEj+0x28>
    3384:	99 83       	std	Y+1, r25	; 0x01
    3386:	88 83       	st	Y, r24
    3388:	1b 83       	std	Y+3, r17	; 0x03
    338a:	0a 83       	std	Y+2, r16	; 0x02
    338c:	81 e0       	ldi	r24, 0x01	; 1
    338e:	01 c0       	rjmp	.+2      	; 0x3392 <_ZN6String12changeBufferEj+0x2a>
    3390:	80 e0       	ldi	r24, 0x00	; 0
    3392:	df 91       	pop	r29
    3394:	cf 91       	pop	r28
    3396:	1f 91       	pop	r17
    3398:	0f 91       	pop	r16
    339a:	08 95       	ret

0000339c <_ZN6String7reserveEj>:
    339c:	cf 93       	push	r28
    339e:	df 93       	push	r29
    33a0:	ec 01       	movw	r28, r24
    33a2:	88 81       	ld	r24, Y
    33a4:	99 81       	ldd	r25, Y+1	; 0x01
    33a6:	89 2b       	or	r24, r25
    33a8:	29 f0       	breq	.+10     	; 0x33b4 <_ZN6String7reserveEj+0x18>
    33aa:	8a 81       	ldd	r24, Y+2	; 0x02
    33ac:	9b 81       	ldd	r25, Y+3	; 0x03
    33ae:	86 17       	cp	r24, r22
    33b0:	97 07       	cpc	r25, r23
    33b2:	60 f4       	brcc	.+24     	; 0x33cc <_ZN6String7reserveEj+0x30>
    33b4:	ce 01       	movw	r24, r28
    33b6:	0e 94 b4 19 	call	0x3368	; 0x3368 <_ZN6String12changeBufferEj>
    33ba:	88 23       	and	r24, r24
    33bc:	41 f0       	breq	.+16     	; 0x33ce <_ZN6String7reserveEj+0x32>
    33be:	8c 81       	ldd	r24, Y+4	; 0x04
    33c0:	9d 81       	ldd	r25, Y+5	; 0x05
    33c2:	89 2b       	or	r24, r25
    33c4:	19 f4       	brne	.+6      	; 0x33cc <_ZN6String7reserveEj+0x30>
    33c6:	e8 81       	ld	r30, Y
    33c8:	f9 81       	ldd	r31, Y+1	; 0x01
    33ca:	10 82       	st	Z, r1
    33cc:	81 e0       	ldi	r24, 0x01	; 1
    33ce:	df 91       	pop	r29
    33d0:	cf 91       	pop	r28
    33d2:	08 95       	ret

000033d4 <_ZN6String4copyEPKcj>:
    33d4:	ef 92       	push	r14
    33d6:	ff 92       	push	r15
    33d8:	0f 93       	push	r16
    33da:	1f 93       	push	r17
    33dc:	cf 93       	push	r28
    33de:	df 93       	push	r29
    33e0:	ec 01       	movw	r28, r24
    33e2:	7b 01       	movw	r14, r22
    33e4:	8a 01       	movw	r16, r20
    33e6:	ba 01       	movw	r22, r20
    33e8:	0e 94 ce 19 	call	0x339c	; 0x339c <_ZN6String7reserveEj>
    33ec:	81 11       	cpse	r24, r1
    33ee:	04 c0       	rjmp	.+8      	; 0x33f8 <_ZN6String4copyEPKcj+0x24>
    33f0:	ce 01       	movw	r24, r28
    33f2:	0e 94 a2 19 	call	0x3344	; 0x3344 <_ZN6String10invalidateEv>
    33f6:	07 c0       	rjmp	.+14     	; 0x3406 <_ZN6String4copyEPKcj+0x32>
    33f8:	1d 83       	std	Y+5, r17	; 0x05
    33fa:	0c 83       	std	Y+4, r16	; 0x04
    33fc:	b7 01       	movw	r22, r14
    33fe:	88 81       	ld	r24, Y
    3400:	99 81       	ldd	r25, Y+1	; 0x01
    3402:	0e 94 08 1e 	call	0x3c10	; 0x3c10 <strcpy>
    3406:	ce 01       	movw	r24, r28
    3408:	df 91       	pop	r29
    340a:	cf 91       	pop	r28
    340c:	1f 91       	pop	r17
    340e:	0f 91       	pop	r16
    3410:	ff 90       	pop	r15
    3412:	ef 90       	pop	r14
    3414:	08 95       	ret

00003416 <_ZN6StringC1EPKc>:
    3416:	fc 01       	movw	r30, r24
    3418:	11 82       	std	Z+1, r1	; 0x01
    341a:	10 82       	st	Z, r1
    341c:	13 82       	std	Z+3, r1	; 0x03
    341e:	12 82       	std	Z+2, r1	; 0x02
    3420:	15 82       	std	Z+5, r1	; 0x05
    3422:	14 82       	std	Z+4, r1	; 0x04
    3424:	61 15       	cp	r22, r1
    3426:	71 05       	cpc	r23, r1
    3428:	51 f0       	breq	.+20     	; 0x343e <_ZN6StringC1EPKc+0x28>
    342a:	fb 01       	movw	r30, r22
    342c:	01 90       	ld	r0, Z+
    342e:	00 20       	and	r0, r0
    3430:	e9 f7       	brne	.-6      	; 0x342c <_ZN6StringC1EPKc+0x16>
    3432:	31 97       	sbiw	r30, 0x01	; 1
    3434:	af 01       	movw	r20, r30
    3436:	46 1b       	sub	r20, r22
    3438:	57 0b       	sbc	r21, r23
    343a:	0c 94 ea 19 	jmp	0x33d4	; 0x33d4 <_ZN6String4copyEPKcj>
    343e:	08 95       	ret

00003440 <_ZN6String4moveERS_>:
    3440:	0f 93       	push	r16
    3442:	1f 93       	push	r17
    3444:	cf 93       	push	r28
    3446:	df 93       	push	r29
    3448:	8c 01       	movw	r16, r24
    344a:	eb 01       	movw	r28, r22
    344c:	fc 01       	movw	r30, r24
    344e:	80 81       	ld	r24, Z
    3450:	91 81       	ldd	r25, Z+1	; 0x01
    3452:	00 97       	sbiw	r24, 0x00	; 0
    3454:	d1 f0       	breq	.+52     	; 0x348a <_ZN6String4moveERS_+0x4a>
    3456:	68 81       	ld	r22, Y
    3458:	79 81       	ldd	r23, Y+1	; 0x01
    345a:	61 15       	cp	r22, r1
    345c:	71 05       	cpc	r23, r1
    345e:	99 f0       	breq	.+38     	; 0x3486 <_ZN6String4moveERS_+0x46>
    3460:	2c e9       	ldi	r18, 0x9C	; 156
    3462:	39 e1       	ldi	r19, 0x19	; 25
    3464:	23 2b       	or	r18, r19
    3466:	79 f0       	breq	.+30     	; 0x3486 <_ZN6String4moveERS_+0x46>
    3468:	42 81       	ldd	r20, Z+2	; 0x02
    346a:	53 81       	ldd	r21, Z+3	; 0x03
    346c:	2c 81       	ldd	r18, Y+4	; 0x04
    346e:	3d 81       	ldd	r19, Y+5	; 0x05
    3470:	42 17       	cp	r20, r18
    3472:	53 07       	cpc	r21, r19
    3474:	40 f0       	brcs	.+16     	; 0x3486 <_ZN6String4moveERS_+0x46>
    3476:	0e 94 08 1e 	call	0x3c10	; 0x3c10 <strcpy>
    347a:	8c 81       	ldd	r24, Y+4	; 0x04
    347c:	9d 81       	ldd	r25, Y+5	; 0x05
    347e:	f8 01       	movw	r30, r16
    3480:	95 83       	std	Z+5, r25	; 0x05
    3482:	84 83       	std	Z+4, r24	; 0x04
    3484:	13 c0       	rjmp	.+38     	; 0x34ac <_ZN6String4moveERS_+0x6c>
    3486:	0e 94 87 1c 	call	0x390e	; 0x390e <free>
    348a:	88 81       	ld	r24, Y
    348c:	99 81       	ldd	r25, Y+1	; 0x01
    348e:	f8 01       	movw	r30, r16
    3490:	91 83       	std	Z+1, r25	; 0x01
    3492:	80 83       	st	Z, r24
    3494:	8a 81       	ldd	r24, Y+2	; 0x02
    3496:	9b 81       	ldd	r25, Y+3	; 0x03
    3498:	93 83       	std	Z+3, r25	; 0x03
    349a:	82 83       	std	Z+2, r24	; 0x02
    349c:	8c 81       	ldd	r24, Y+4	; 0x04
    349e:	9d 81       	ldd	r25, Y+5	; 0x05
    34a0:	95 83       	std	Z+5, r25	; 0x05
    34a2:	84 83       	std	Z+4, r24	; 0x04
    34a4:	19 82       	std	Y+1, r1	; 0x01
    34a6:	18 82       	st	Y, r1
    34a8:	1b 82       	std	Y+3, r1	; 0x03
    34aa:	1a 82       	std	Y+2, r1	; 0x02
    34ac:	1d 82       	std	Y+5, r1	; 0x05
    34ae:	1c 82       	std	Y+4, r1	; 0x04
    34b0:	df 91       	pop	r29
    34b2:	cf 91       	pop	r28
    34b4:	1f 91       	pop	r17
    34b6:	0f 91       	pop	r16
    34b8:	08 95       	ret

000034ba <_ZN6StringaSERKS_>:
    34ba:	cf 93       	push	r28
    34bc:	df 93       	push	r29
    34be:	ec 01       	movw	r28, r24
    34c0:	fb 01       	movw	r30, r22
    34c2:	86 17       	cp	r24, r22
    34c4:	97 07       	cpc	r25, r23
    34c6:	61 f0       	breq	.+24     	; 0x34e0 <_ZN6StringaSERKS_+0x26>
    34c8:	60 81       	ld	r22, Z
    34ca:	71 81       	ldd	r23, Z+1	; 0x01
    34cc:	61 15       	cp	r22, r1
    34ce:	71 05       	cpc	r23, r1
    34d0:	29 f0       	breq	.+10     	; 0x34dc <_ZN6StringaSERKS_+0x22>
    34d2:	44 81       	ldd	r20, Z+4	; 0x04
    34d4:	55 81       	ldd	r21, Z+5	; 0x05
    34d6:	0e 94 ea 19 	call	0x33d4	; 0x33d4 <_ZN6String4copyEPKcj>
    34da:	02 c0       	rjmp	.+4      	; 0x34e0 <_ZN6StringaSERKS_+0x26>
    34dc:	0e 94 a2 19 	call	0x3344	; 0x3344 <_ZN6String10invalidateEv>
    34e0:	ce 01       	movw	r24, r28
    34e2:	df 91       	pop	r29
    34e4:	cf 91       	pop	r28
    34e6:	08 95       	ret

000034e8 <_ZN6StringC1ERKS_>:
    34e8:	fc 01       	movw	r30, r24
    34ea:	11 82       	std	Z+1, r1	; 0x01
    34ec:	10 82       	st	Z, r1
    34ee:	13 82       	std	Z+3, r1	; 0x03
    34f0:	12 82       	std	Z+2, r1	; 0x02
    34f2:	15 82       	std	Z+5, r1	; 0x05
    34f4:	14 82       	std	Z+4, r1	; 0x04
    34f6:	0c 94 5d 1a 	jmp	0x34ba	; 0x34ba <_ZN6StringaSERKS_>

000034fa <_ZN6StringaSEOS_>:
    34fa:	cf 93       	push	r28
    34fc:	df 93       	push	r29
    34fe:	ec 01       	movw	r28, r24
    3500:	86 17       	cp	r24, r22
    3502:	97 07       	cpc	r25, r23
    3504:	11 f0       	breq	.+4      	; 0x350a <_ZN6StringaSEOS_+0x10>
    3506:	0e 94 20 1a 	call	0x3440	; 0x3440 <_ZN6String4moveERS_>
    350a:	ce 01       	movw	r24, r28
    350c:	df 91       	pop	r29
    350e:	cf 91       	pop	r28
    3510:	08 95       	ret

00003512 <_ZN6StringaSEPKc>:
    3512:	cf 93       	push	r28
    3514:	df 93       	push	r29
    3516:	ec 01       	movw	r28, r24
    3518:	61 15       	cp	r22, r1
    351a:	71 05       	cpc	r23, r1
    351c:	59 f0       	breq	.+22     	; 0x3534 <_ZN6StringaSEPKc+0x22>
    351e:	fb 01       	movw	r30, r22
    3520:	01 90       	ld	r0, Z+
    3522:	00 20       	and	r0, r0
    3524:	e9 f7       	brne	.-6      	; 0x3520 <_ZN6StringaSEPKc+0xe>
    3526:	31 97       	sbiw	r30, 0x01	; 1
    3528:	af 01       	movw	r20, r30
    352a:	46 1b       	sub	r20, r22
    352c:	57 0b       	sbc	r21, r23
    352e:	0e 94 ea 19 	call	0x33d4	; 0x33d4 <_ZN6String4copyEPKcj>
    3532:	02 c0       	rjmp	.+4      	; 0x3538 <_ZN6StringaSEPKc+0x26>
    3534:	0e 94 a2 19 	call	0x3344	; 0x3344 <_ZN6String10invalidateEv>
    3538:	ce 01       	movw	r24, r28
    353a:	df 91       	pop	r29
    353c:	cf 91       	pop	r28
    353e:	08 95       	ret

00003540 <_ZN6String6concatEPKcj>:
    3540:	ef 92       	push	r14
    3542:	ff 92       	push	r15
    3544:	0f 93       	push	r16
    3546:	1f 93       	push	r17
    3548:	cf 93       	push	r28
    354a:	df 93       	push	r29
    354c:	fc 01       	movw	r30, r24
    354e:	24 81       	ldd	r18, Z+4	; 0x04
    3550:	35 81       	ldd	r19, Z+5	; 0x05
    3552:	61 15       	cp	r22, r1
    3554:	71 05       	cpc	r23, r1
    3556:	11 f4       	brne	.+4      	; 0x355c <_ZN6String6concatEPKcj+0x1c>
    3558:	80 e0       	ldi	r24, 0x00	; 0
    355a:	19 c0       	rjmp	.+50     	; 0x358e <_ZN6String6concatEPKcj+0x4e>
    355c:	41 15       	cp	r20, r1
    355e:	51 05       	cpc	r21, r1
    3560:	a9 f0       	breq	.+42     	; 0x358c <_ZN6String6concatEPKcj+0x4c>
    3562:	7b 01       	movw	r14, r22
    3564:	ec 01       	movw	r28, r24
    3566:	8a 01       	movw	r16, r20
    3568:	02 0f       	add	r16, r18
    356a:	13 1f       	adc	r17, r19
    356c:	b8 01       	movw	r22, r16
    356e:	0e 94 ce 19 	call	0x339c	; 0x339c <_ZN6String7reserveEj>
    3572:	88 23       	and	r24, r24
    3574:	89 f3       	breq	.-30     	; 0x3558 <_ZN6String6concatEPKcj+0x18>
    3576:	28 81       	ld	r18, Y
    3578:	39 81       	ldd	r19, Y+1	; 0x01
    357a:	8c 81       	ldd	r24, Y+4	; 0x04
    357c:	9d 81       	ldd	r25, Y+5	; 0x05
    357e:	b7 01       	movw	r22, r14
    3580:	82 0f       	add	r24, r18
    3582:	93 1f       	adc	r25, r19
    3584:	0e 94 08 1e 	call	0x3c10	; 0x3c10 <strcpy>
    3588:	1d 83       	std	Y+5, r17	; 0x05
    358a:	0c 83       	std	Y+4, r16	; 0x04
    358c:	81 e0       	ldi	r24, 0x01	; 1
    358e:	df 91       	pop	r29
    3590:	cf 91       	pop	r28
    3592:	1f 91       	pop	r17
    3594:	0f 91       	pop	r16
    3596:	ff 90       	pop	r15
    3598:	ef 90       	pop	r14
    359a:	08 95       	ret

0000359c <_ZN6String6concatERKS_>:
    359c:	fb 01       	movw	r30, r22
    359e:	44 81       	ldd	r20, Z+4	; 0x04
    35a0:	55 81       	ldd	r21, Z+5	; 0x05
    35a2:	60 81       	ld	r22, Z
    35a4:	71 81       	ldd	r23, Z+1	; 0x01
    35a6:	0c 94 a0 1a 	jmp	0x3540	; 0x3540 <_ZN6String6concatEPKcj>

000035aa <_ZN6String6concatEc>:
    35aa:	cf 93       	push	r28
    35ac:	df 93       	push	r29
    35ae:	00 d0       	rcall	.+0      	; 0x35b0 <_ZN6String6concatEc+0x6>
    35b0:	cd b7       	in	r28, 0x3d	; 61
    35b2:	de b7       	in	r29, 0x3e	; 62
    35b4:	69 83       	std	Y+1, r22	; 0x01
    35b6:	1a 82       	std	Y+2, r1	; 0x02
    35b8:	41 e0       	ldi	r20, 0x01	; 1
    35ba:	50 e0       	ldi	r21, 0x00	; 0
    35bc:	be 01       	movw	r22, r28
    35be:	6f 5f       	subi	r22, 0xFF	; 255
    35c0:	7f 4f       	sbci	r23, 0xFF	; 255
    35c2:	0e 94 a0 1a 	call	0x3540	; 0x3540 <_ZN6String6concatEPKcj>
    35c6:	0f 90       	pop	r0
    35c8:	0f 90       	pop	r0
    35ca:	df 91       	pop	r29
    35cc:	cf 91       	pop	r28
    35ce:	08 95       	ret

000035d0 <_ZNK6String6equalsEPKc>:
    35d0:	fc 01       	movw	r30, r24
    35d2:	24 81       	ldd	r18, Z+4	; 0x04
    35d4:	35 81       	ldd	r19, Z+5	; 0x05
    35d6:	23 2b       	or	r18, r19
    35d8:	31 f4       	brne	.+12     	; 0x35e6 <_ZNK6String6equalsEPKc+0x16>
    35da:	21 e0       	ldi	r18, 0x01	; 1
    35dc:	61 15       	cp	r22, r1
    35de:	71 05       	cpc	r23, r1
    35e0:	a1 f0       	breq	.+40     	; 0x360a <_ZNK6String6equalsEPKc+0x3a>
    35e2:	fb 01       	movw	r30, r22
    35e4:	08 c0       	rjmp	.+16     	; 0x35f6 <_ZNK6String6equalsEPKc+0x26>
    35e6:	fc 01       	movw	r30, r24
    35e8:	80 81       	ld	r24, Z
    35ea:	91 81       	ldd	r25, Z+1	; 0x01
    35ec:	61 15       	cp	r22, r1
    35ee:	71 05       	cpc	r23, r1
    35f0:	31 f4       	brne	.+12     	; 0x35fe <_ZNK6String6equalsEPKc+0x2e>
    35f2:	21 e0       	ldi	r18, 0x01	; 1
    35f4:	fc 01       	movw	r30, r24
    35f6:	80 81       	ld	r24, Z
    35f8:	88 23       	and	r24, r24
    35fa:	39 f0       	breq	.+14     	; 0x360a <_ZNK6String6equalsEPKc+0x3a>
    35fc:	05 c0       	rjmp	.+10     	; 0x3608 <_ZNK6String6equalsEPKc+0x38>
    35fe:	0e 94 ff 1d 	call	0x3bfe	; 0x3bfe <strcmp>
    3602:	21 e0       	ldi	r18, 0x01	; 1
    3604:	89 2b       	or	r24, r25
    3606:	09 f0       	breq	.+2      	; 0x360a <_ZNK6String6equalsEPKc+0x3a>
    3608:	20 e0       	ldi	r18, 0x00	; 0
    360a:	82 2f       	mov	r24, r18
    360c:	08 95       	ret

0000360e <_ZNK6String10startsWithERKS_j>:
    360e:	db 01       	movw	r26, r22
    3610:	14 96       	adiw	r26, 0x04	; 4
    3612:	ed 91       	ld	r30, X+
    3614:	fc 91       	ld	r31, X
    3616:	15 97       	sbiw	r26, 0x05	; 5
    3618:	dc 01       	movw	r26, r24
    361a:	14 96       	adiw	r26, 0x04	; 4
    361c:	2d 91       	ld	r18, X+
    361e:	3c 91       	ld	r19, X
    3620:	15 97       	sbiw	r26, 0x05	; 5
    3622:	2e 1b       	sub	r18, r30
    3624:	3f 0b       	sbc	r19, r31
    3626:	24 17       	cp	r18, r20
    3628:	35 07       	cpc	r19, r21
    362a:	a0 f0       	brcs	.+40     	; 0x3654 <_ZNK6String10startsWithERKS_j+0x46>
    362c:	2d 91       	ld	r18, X+
    362e:	3c 91       	ld	r19, X
    3630:	21 15       	cp	r18, r1
    3632:	31 05       	cpc	r19, r1
    3634:	79 f0       	breq	.+30     	; 0x3654 <_ZNK6String10startsWithERKS_j+0x46>
    3636:	db 01       	movw	r26, r22
    3638:	6d 91       	ld	r22, X+
    363a:	7c 91       	ld	r23, X
    363c:	61 15       	cp	r22, r1
    363e:	71 05       	cpc	r23, r1
    3640:	49 f0       	breq	.+18     	; 0x3654 <_ZNK6String10startsWithERKS_j+0x46>
    3642:	ca 01       	movw	r24, r20
    3644:	af 01       	movw	r20, r30
    3646:	82 0f       	add	r24, r18
    3648:	93 1f       	adc	r25, r19
    364a:	0e 94 0f 1e 	call	0x3c1e	; 0x3c1e <strncmp>
    364e:	21 e0       	ldi	r18, 0x01	; 1
    3650:	89 2b       	or	r24, r25
    3652:	09 f0       	breq	.+2      	; 0x3656 <_ZNK6String10startsWithERKS_j+0x48>
    3654:	20 e0       	ldi	r18, 0x00	; 0
    3656:	82 2f       	mov	r24, r18
    3658:	08 95       	ret

0000365a <_ZNK6String10startsWithERKS_>:
    365a:	fc 01       	movw	r30, r24
    365c:	44 81       	ldd	r20, Z+4	; 0x04
    365e:	55 81       	ldd	r21, Z+5	; 0x05
    3660:	fb 01       	movw	r30, r22
    3662:	24 81       	ldd	r18, Z+4	; 0x04
    3664:	35 81       	ldd	r19, Z+5	; 0x05
    3666:	42 17       	cp	r20, r18
    3668:	53 07       	cpc	r21, r19
    366a:	20 f0       	brcs	.+8      	; 0x3674 <_ZNK6String10startsWithERKS_+0x1a>
    366c:	40 e0       	ldi	r20, 0x00	; 0
    366e:	50 e0       	ldi	r21, 0x00	; 0
    3670:	0c 94 07 1b 	jmp	0x360e	; 0x360e <_ZNK6String10startsWithERKS_j>
    3674:	80 e0       	ldi	r24, 0x00	; 0
    3676:	08 95       	ret

00003678 <_ZNK6String9substringEjj>:
    3678:	bf 92       	push	r11
    367a:	cf 92       	push	r12
    367c:	df 92       	push	r13
    367e:	ef 92       	push	r14
    3680:	ff 92       	push	r15
    3682:	0f 93       	push	r16
    3684:	1f 93       	push	r17
    3686:	cf 93       	push	r28
    3688:	df 93       	push	r29
    368a:	7c 01       	movw	r14, r24
    368c:	6b 01       	movw	r12, r22
    368e:	8a 01       	movw	r16, r20
    3690:	e9 01       	movw	r28, r18
    3692:	24 17       	cp	r18, r20
    3694:	35 07       	cpc	r19, r21
    3696:	20 f4       	brcc	.+8      	; 0x36a0 <_ZNK6String9substringEjj+0x28>
    3698:	81 2f       	mov	r24, r17
    369a:	89 01       	movw	r16, r18
    369c:	c4 2f       	mov	r28, r20
    369e:	d8 2f       	mov	r29, r24
    36a0:	6f ed       	ldi	r22, 0xDF	; 223
    36a2:	75 e0       	ldi	r23, 0x05	; 5
    36a4:	c7 01       	movw	r24, r14
    36a6:	0e 94 0b 1a 	call	0x3416	; 0x3416 <_ZN6StringC1EPKc>
    36aa:	d6 01       	movw	r26, r12
    36ac:	14 96       	adiw	r26, 0x04	; 4
    36ae:	8d 91       	ld	r24, X+
    36b0:	9c 91       	ld	r25, X
    36b2:	15 97       	sbiw	r26, 0x05	; 5
    36b4:	08 17       	cp	r16, r24
    36b6:	19 07       	cpc	r17, r25
    36b8:	d0 f4       	brcc	.+52     	; 0x36ee <_ZNK6String9substringEjj+0x76>
    36ba:	8c 17       	cp	r24, r28
    36bc:	9d 07       	cpc	r25, r29
    36be:	08 f4       	brcc	.+2      	; 0x36c2 <_ZNK6String9substringEjj+0x4a>
    36c0:	ec 01       	movw	r28, r24
    36c2:	d6 01       	movw	r26, r12
    36c4:	ed 91       	ld	r30, X+
    36c6:	fc 91       	ld	r31, X
    36c8:	11 97       	sbiw	r26, 0x01	; 1
    36ca:	ec 0f       	add	r30, r28
    36cc:	fd 1f       	adc	r31, r29
    36ce:	b0 80       	ld	r11, Z
    36d0:	10 82       	st	Z, r1
    36d2:	4d 91       	ld	r20, X+
    36d4:	5c 91       	ld	r21, X
    36d6:	ba 01       	movw	r22, r20
    36d8:	60 0f       	add	r22, r16
    36da:	71 1f       	adc	r23, r17
    36dc:	c7 01       	movw	r24, r14
    36de:	0e 94 89 1a 	call	0x3512	; 0x3512 <_ZN6StringaSEPKc>
    36e2:	d6 01       	movw	r26, r12
    36e4:	ed 91       	ld	r30, X+
    36e6:	fc 91       	ld	r31, X
    36e8:	ec 0f       	add	r30, r28
    36ea:	fd 1f       	adc	r31, r29
    36ec:	b0 82       	st	Z, r11
    36ee:	c7 01       	movw	r24, r14
    36f0:	df 91       	pop	r29
    36f2:	cf 91       	pop	r28
    36f4:	1f 91       	pop	r17
    36f6:	0f 91       	pop	r16
    36f8:	ff 90       	pop	r15
    36fa:	ef 90       	pop	r14
    36fc:	df 90       	pop	r13
    36fe:	cf 90       	pop	r12
    3700:	bf 90       	pop	r11
    3702:	08 95       	ret

00003704 <_ZN6String11toUpperCaseEv>:

void String::toUpperCase(void)
{
    3704:	cf 93       	push	r28
    3706:	df 93       	push	r29
	if (!buffer) return;
    3708:	fc 01       	movw	r30, r24
    370a:	c0 81       	ld	r28, Z
    370c:	d1 81       	ldd	r29, Z+1	; 0x01
    370e:	20 97       	sbiw	r28, 0x00	; 0
    3710:	41 f0       	breq	.+16     	; 0x3722 <_ZN6String11toUpperCaseEv+0x1e>
	for (char *p = buffer; *p; p++) {
    3712:	88 81       	ld	r24, Y
    3714:	88 23       	and	r24, r24
    3716:	29 f0       	breq	.+10     	; 0x3722 <_ZN6String11toUpperCaseEv+0x1e>
		*p = toupper(*p);
    3718:	90 e0       	ldi	r25, 0x00	; 0
    371a:	0e 94 ee 1d 	call	0x3bdc	; 0x3bdc <toupper>
    371e:	89 93       	st	Y+, r24
    3720:	f8 cf       	rjmp	.-16     	; 0x3712 <_ZN6String11toUpperCaseEv+0xe>
	}
}
    3722:	df 91       	pop	r29
    3724:	cf 91       	pop	r28
    3726:	08 95       	ret

00003728 <yield>:
 * libraries or sketches that supports cooperative threads.
 *
 * Its defined as a weak symbol and it can be redefined to implement a
 * real cooperative scheduler.
 */
static void __empty() {
    3728:	08 95       	ret

0000372a <__udivmodsi4>:
    372a:	a1 e2       	ldi	r26, 0x21	; 33
    372c:	1a 2e       	mov	r1, r26
    372e:	aa 1b       	sub	r26, r26
    3730:	bb 1b       	sub	r27, r27
    3732:	fd 01       	movw	r30, r26
    3734:	0d c0       	rjmp	.+26     	; 0x3750 <__udivmodsi4_ep>

00003736 <__udivmodsi4_loop>:
    3736:	aa 1f       	adc	r26, r26
    3738:	bb 1f       	adc	r27, r27
    373a:	ee 1f       	adc	r30, r30
    373c:	ff 1f       	adc	r31, r31
    373e:	a2 17       	cp	r26, r18
    3740:	b3 07       	cpc	r27, r19
    3742:	e4 07       	cpc	r30, r20
    3744:	f5 07       	cpc	r31, r21
    3746:	20 f0       	brcs	.+8      	; 0x3750 <__udivmodsi4_ep>
    3748:	a2 1b       	sub	r26, r18
    374a:	b3 0b       	sbc	r27, r19
    374c:	e4 0b       	sbc	r30, r20
    374e:	f5 0b       	sbc	r31, r21

00003750 <__udivmodsi4_ep>:
    3750:	66 1f       	adc	r22, r22
    3752:	77 1f       	adc	r23, r23
    3754:	88 1f       	adc	r24, r24
    3756:	99 1f       	adc	r25, r25
    3758:	1a 94       	dec	r1
    375a:	69 f7       	brne	.-38     	; 0x3736 <__udivmodsi4_loop>
    375c:	60 95       	com	r22
    375e:	70 95       	com	r23
    3760:	80 95       	com	r24
    3762:	90 95       	com	r25
    3764:	9b 01       	movw	r18, r22
    3766:	ac 01       	movw	r20, r24
    3768:	bd 01       	movw	r22, r26
    376a:	cf 01       	movw	r24, r30
    376c:	08 95       	ret

0000376e <__divmodsi4>:
    376e:	05 2e       	mov	r0, r21
    3770:	97 fb       	bst	r25, 7
    3772:	1e f4       	brtc	.+6      	; 0x377a <__divmodsi4+0xc>
    3774:	00 94       	com	r0
    3776:	0e 94 ce 1b 	call	0x379c	; 0x379c <__negsi2>
    377a:	57 fd       	sbrc	r21, 7
    377c:	07 d0       	rcall	.+14     	; 0x378c <__divmodsi4_neg2>
    377e:	0e 94 95 1b 	call	0x372a	; 0x372a <__udivmodsi4>
    3782:	07 fc       	sbrc	r0, 7
    3784:	03 d0       	rcall	.+6      	; 0x378c <__divmodsi4_neg2>
    3786:	4e f4       	brtc	.+18     	; 0x379a <__divmodsi4_exit>
    3788:	0c 94 ce 1b 	jmp	0x379c	; 0x379c <__negsi2>

0000378c <__divmodsi4_neg2>:
    378c:	50 95       	com	r21
    378e:	40 95       	com	r20
    3790:	30 95       	com	r19
    3792:	21 95       	neg	r18
    3794:	3f 4f       	sbci	r19, 0xFF	; 255
    3796:	4f 4f       	sbci	r20, 0xFF	; 255
    3798:	5f 4f       	sbci	r21, 0xFF	; 255

0000379a <__divmodsi4_exit>:
    379a:	08 95       	ret

0000379c <__negsi2>:
    379c:	90 95       	com	r25
    379e:	80 95       	com	r24
    37a0:	70 95       	com	r23
    37a2:	61 95       	neg	r22
    37a4:	7f 4f       	sbci	r23, 0xFF	; 255
    37a6:	8f 4f       	sbci	r24, 0xFF	; 255
    37a8:	9f 4f       	sbci	r25, 0xFF	; 255
    37aa:	08 95       	ret

000037ac <__umulhisi3>:
    37ac:	a2 9f       	mul	r26, r18
    37ae:	b0 01       	movw	r22, r0
    37b0:	b3 9f       	mul	r27, r19
    37b2:	c0 01       	movw	r24, r0
    37b4:	a3 9f       	mul	r26, r19
    37b6:	70 0d       	add	r23, r0
    37b8:	81 1d       	adc	r24, r1
    37ba:	11 24       	eor	r1, r1
    37bc:	91 1d       	adc	r25, r1
    37be:	b2 9f       	mul	r27, r18
    37c0:	70 0d       	add	r23, r0
    37c2:	81 1d       	adc	r24, r1
    37c4:	11 24       	eor	r1, r1
    37c6:	91 1d       	adc	r25, r1
    37c8:	08 95       	ret

000037ca <__usmulhisi3>:
    37ca:	0e 94 d6 1b 	call	0x37ac	; 0x37ac <__umulhisi3>

000037ce <__usmulhisi3_tail>:
    37ce:	b7 ff       	sbrs	r27, 7
    37d0:	08 95       	ret
    37d2:	82 1b       	sub	r24, r18
    37d4:	93 0b       	sbc	r25, r19
    37d6:	08 95       	ret

000037d8 <__tablejump2__>:
    37d8:	ee 0f       	add	r30, r30
    37da:	ff 1f       	adc	r31, r31
    37dc:	05 90       	lpm	r0, Z+
    37de:	f4 91       	lpm	r31, Z
    37e0:	e0 2d       	mov	r30, r0
    37e2:	09 94       	ijmp

000037e4 <malloc>:
    37e4:	cf 93       	push	r28
    37e6:	df 93       	push	r29
    37e8:	82 30       	cpi	r24, 0x02	; 2
    37ea:	91 05       	cpc	r25, r1
    37ec:	10 f4       	brcc	.+4      	; 0x37f2 <malloc+0xe>
    37ee:	82 e0       	ldi	r24, 0x02	; 2
    37f0:	90 e0       	ldi	r25, 0x00	; 0
    37f2:	e0 91 bf 07 	lds	r30, 0x07BF	; 0x8007bf <__flp>
    37f6:	f0 91 c0 07 	lds	r31, 0x07C0	; 0x8007c0 <__flp+0x1>
    37fa:	20 e0       	ldi	r18, 0x00	; 0
    37fc:	30 e0       	ldi	r19, 0x00	; 0
    37fe:	c0 e0       	ldi	r28, 0x00	; 0
    3800:	d0 e0       	ldi	r29, 0x00	; 0
    3802:	30 97       	sbiw	r30, 0x00	; 0
    3804:	11 f1       	breq	.+68     	; 0x384a <malloc+0x66>
    3806:	40 81       	ld	r20, Z
    3808:	51 81       	ldd	r21, Z+1	; 0x01
    380a:	48 17       	cp	r20, r24
    380c:	59 07       	cpc	r21, r25
    380e:	c0 f0       	brcs	.+48     	; 0x3840 <malloc+0x5c>
    3810:	48 17       	cp	r20, r24
    3812:	59 07       	cpc	r21, r25
    3814:	61 f4       	brne	.+24     	; 0x382e <malloc+0x4a>
    3816:	82 81       	ldd	r24, Z+2	; 0x02
    3818:	93 81       	ldd	r25, Z+3	; 0x03
    381a:	20 97       	sbiw	r28, 0x00	; 0
    381c:	19 f0       	breq	.+6      	; 0x3824 <malloc+0x40>
    381e:	9b 83       	std	Y+3, r25	; 0x03
    3820:	8a 83       	std	Y+2, r24	; 0x02
    3822:	2b c0       	rjmp	.+86     	; 0x387a <malloc+0x96>
    3824:	90 93 c0 07 	sts	0x07C0, r25	; 0x8007c0 <__flp+0x1>
    3828:	80 93 bf 07 	sts	0x07BF, r24	; 0x8007bf <__flp>
    382c:	26 c0       	rjmp	.+76     	; 0x387a <malloc+0x96>
    382e:	21 15       	cp	r18, r1
    3830:	31 05       	cpc	r19, r1
    3832:	19 f0       	breq	.+6      	; 0x383a <malloc+0x56>
    3834:	42 17       	cp	r20, r18
    3836:	53 07       	cpc	r21, r19
    3838:	18 f4       	brcc	.+6      	; 0x3840 <malloc+0x5c>
    383a:	9a 01       	movw	r18, r20
    383c:	be 01       	movw	r22, r28
    383e:	df 01       	movw	r26, r30
    3840:	ef 01       	movw	r28, r30
    3842:	02 80       	ldd	r0, Z+2	; 0x02
    3844:	f3 81       	ldd	r31, Z+3	; 0x03
    3846:	e0 2d       	mov	r30, r0
    3848:	dc cf       	rjmp	.-72     	; 0x3802 <malloc+0x1e>
    384a:	21 15       	cp	r18, r1
    384c:	31 05       	cpc	r19, r1
    384e:	09 f1       	breq	.+66     	; 0x3892 <malloc+0xae>
    3850:	28 1b       	sub	r18, r24
    3852:	39 0b       	sbc	r19, r25
    3854:	24 30       	cpi	r18, 0x04	; 4
    3856:	31 05       	cpc	r19, r1
    3858:	90 f4       	brcc	.+36     	; 0x387e <malloc+0x9a>
    385a:	12 96       	adiw	r26, 0x02	; 2
    385c:	8d 91       	ld	r24, X+
    385e:	9c 91       	ld	r25, X
    3860:	13 97       	sbiw	r26, 0x03	; 3
    3862:	61 15       	cp	r22, r1
    3864:	71 05       	cpc	r23, r1
    3866:	21 f0       	breq	.+8      	; 0x3870 <malloc+0x8c>
    3868:	fb 01       	movw	r30, r22
    386a:	93 83       	std	Z+3, r25	; 0x03
    386c:	82 83       	std	Z+2, r24	; 0x02
    386e:	04 c0       	rjmp	.+8      	; 0x3878 <malloc+0x94>
    3870:	90 93 c0 07 	sts	0x07C0, r25	; 0x8007c0 <__flp+0x1>
    3874:	80 93 bf 07 	sts	0x07BF, r24	; 0x8007bf <__flp>
    3878:	fd 01       	movw	r30, r26
    387a:	32 96       	adiw	r30, 0x02	; 2
    387c:	44 c0       	rjmp	.+136    	; 0x3906 <malloc+0x122>
    387e:	fd 01       	movw	r30, r26
    3880:	e2 0f       	add	r30, r18
    3882:	f3 1f       	adc	r31, r19
    3884:	81 93       	st	Z+, r24
    3886:	91 93       	st	Z+, r25
    3888:	22 50       	subi	r18, 0x02	; 2
    388a:	31 09       	sbc	r19, r1
    388c:	2d 93       	st	X+, r18
    388e:	3c 93       	st	X, r19
    3890:	3a c0       	rjmp	.+116    	; 0x3906 <malloc+0x122>
    3892:	20 91 bd 07 	lds	r18, 0x07BD	; 0x8007bd <__brkval>
    3896:	30 91 be 07 	lds	r19, 0x07BE	; 0x8007be <__brkval+0x1>
    389a:	23 2b       	or	r18, r19
    389c:	41 f4       	brne	.+16     	; 0x38ae <malloc+0xca>
    389e:	20 91 02 01 	lds	r18, 0x0102	; 0x800102 <__malloc_heap_start>
    38a2:	30 91 03 01 	lds	r19, 0x0103	; 0x800103 <__malloc_heap_start+0x1>
    38a6:	30 93 be 07 	sts	0x07BE, r19	; 0x8007be <__brkval+0x1>
    38aa:	20 93 bd 07 	sts	0x07BD, r18	; 0x8007bd <__brkval>
    38ae:	20 91 00 01 	lds	r18, 0x0100	; 0x800100 <__data_start>
    38b2:	30 91 01 01 	lds	r19, 0x0101	; 0x800101 <__data_start+0x1>
    38b6:	21 15       	cp	r18, r1
    38b8:	31 05       	cpc	r19, r1
    38ba:	41 f4       	brne	.+16     	; 0x38cc <malloc+0xe8>
    38bc:	2d b7       	in	r18, 0x3d	; 61
    38be:	3e b7       	in	r19, 0x3e	; 62
    38c0:	40 91 04 01 	lds	r20, 0x0104	; 0x800104 <__malloc_margin>
    38c4:	50 91 05 01 	lds	r21, 0x0105	; 0x800105 <__malloc_margin+0x1>
    38c8:	24 1b       	sub	r18, r20
    38ca:	35 0b       	sbc	r19, r21
    38cc:	e0 91 bd 07 	lds	r30, 0x07BD	; 0x8007bd <__brkval>
    38d0:	f0 91 be 07 	lds	r31, 0x07BE	; 0x8007be <__brkval+0x1>
    38d4:	e2 17       	cp	r30, r18
    38d6:	f3 07       	cpc	r31, r19
    38d8:	a0 f4       	brcc	.+40     	; 0x3902 <malloc+0x11e>
    38da:	2e 1b       	sub	r18, r30
    38dc:	3f 0b       	sbc	r19, r31
    38de:	28 17       	cp	r18, r24
    38e0:	39 07       	cpc	r19, r25
    38e2:	78 f0       	brcs	.+30     	; 0x3902 <malloc+0x11e>
    38e4:	ac 01       	movw	r20, r24
    38e6:	4e 5f       	subi	r20, 0xFE	; 254
    38e8:	5f 4f       	sbci	r21, 0xFF	; 255
    38ea:	24 17       	cp	r18, r20
    38ec:	35 07       	cpc	r19, r21
    38ee:	48 f0       	brcs	.+18     	; 0x3902 <malloc+0x11e>
    38f0:	4e 0f       	add	r20, r30
    38f2:	5f 1f       	adc	r21, r31
    38f4:	50 93 be 07 	sts	0x07BE, r21	; 0x8007be <__brkval+0x1>
    38f8:	40 93 bd 07 	sts	0x07BD, r20	; 0x8007bd <__brkval>
    38fc:	81 93       	st	Z+, r24
    38fe:	91 93       	st	Z+, r25
    3900:	02 c0       	rjmp	.+4      	; 0x3906 <malloc+0x122>
    3902:	e0 e0       	ldi	r30, 0x00	; 0
    3904:	f0 e0       	ldi	r31, 0x00	; 0
    3906:	cf 01       	movw	r24, r30
    3908:	df 91       	pop	r29
    390a:	cf 91       	pop	r28
    390c:	08 95       	ret

0000390e <free>:
    390e:	0f 93       	push	r16
    3910:	1f 93       	push	r17
    3912:	cf 93       	push	r28
    3914:	df 93       	push	r29
    3916:	00 97       	sbiw	r24, 0x00	; 0
    3918:	09 f4       	brne	.+2      	; 0x391c <free+0xe>
    391a:	8c c0       	rjmp	.+280    	; 0x3a34 <free+0x126>
    391c:	fc 01       	movw	r30, r24
    391e:	32 97       	sbiw	r30, 0x02	; 2
    3920:	13 82       	std	Z+3, r1	; 0x03
    3922:	12 82       	std	Z+2, r1	; 0x02
    3924:	00 91 bf 07 	lds	r16, 0x07BF	; 0x8007bf <__flp>
    3928:	10 91 c0 07 	lds	r17, 0x07C0	; 0x8007c0 <__flp+0x1>
    392c:	01 15       	cp	r16, r1
    392e:	11 05       	cpc	r17, r1
    3930:	81 f4       	brne	.+32     	; 0x3952 <free+0x44>
    3932:	20 81       	ld	r18, Z
    3934:	31 81       	ldd	r19, Z+1	; 0x01
    3936:	82 0f       	add	r24, r18
    3938:	93 1f       	adc	r25, r19
    393a:	20 91 bd 07 	lds	r18, 0x07BD	; 0x8007bd <__brkval>
    393e:	30 91 be 07 	lds	r19, 0x07BE	; 0x8007be <__brkval+0x1>
    3942:	28 17       	cp	r18, r24
    3944:	39 07       	cpc	r19, r25
    3946:	79 f5       	brne	.+94     	; 0x39a6 <free+0x98>
    3948:	f0 93 be 07 	sts	0x07BE, r31	; 0x8007be <__brkval+0x1>
    394c:	e0 93 bd 07 	sts	0x07BD, r30	; 0x8007bd <__brkval>
    3950:	71 c0       	rjmp	.+226    	; 0x3a34 <free+0x126>
    3952:	d8 01       	movw	r26, r16
    3954:	40 e0       	ldi	r20, 0x00	; 0
    3956:	50 e0       	ldi	r21, 0x00	; 0
    3958:	ae 17       	cp	r26, r30
    395a:	bf 07       	cpc	r27, r31
    395c:	50 f4       	brcc	.+20     	; 0x3972 <free+0x64>
    395e:	12 96       	adiw	r26, 0x02	; 2
    3960:	2d 91       	ld	r18, X+
    3962:	3c 91       	ld	r19, X
    3964:	13 97       	sbiw	r26, 0x03	; 3
    3966:	ad 01       	movw	r20, r26
    3968:	21 15       	cp	r18, r1
    396a:	31 05       	cpc	r19, r1
    396c:	09 f1       	breq	.+66     	; 0x39b0 <free+0xa2>
    396e:	d9 01       	movw	r26, r18
    3970:	f3 cf       	rjmp	.-26     	; 0x3958 <free+0x4a>
    3972:	9d 01       	movw	r18, r26
    3974:	da 01       	movw	r26, r20
    3976:	33 83       	std	Z+3, r19	; 0x03
    3978:	22 83       	std	Z+2, r18	; 0x02
    397a:	60 81       	ld	r22, Z
    397c:	71 81       	ldd	r23, Z+1	; 0x01
    397e:	86 0f       	add	r24, r22
    3980:	97 1f       	adc	r25, r23
    3982:	82 17       	cp	r24, r18
    3984:	93 07       	cpc	r25, r19
    3986:	69 f4       	brne	.+26     	; 0x39a2 <free+0x94>
    3988:	ec 01       	movw	r28, r24
    398a:	28 81       	ld	r18, Y
    398c:	39 81       	ldd	r19, Y+1	; 0x01
    398e:	26 0f       	add	r18, r22
    3990:	37 1f       	adc	r19, r23
    3992:	2e 5f       	subi	r18, 0xFE	; 254
    3994:	3f 4f       	sbci	r19, 0xFF	; 255
    3996:	31 83       	std	Z+1, r19	; 0x01
    3998:	20 83       	st	Z, r18
    399a:	8a 81       	ldd	r24, Y+2	; 0x02
    399c:	9b 81       	ldd	r25, Y+3	; 0x03
    399e:	93 83       	std	Z+3, r25	; 0x03
    39a0:	82 83       	std	Z+2, r24	; 0x02
    39a2:	45 2b       	or	r20, r21
    39a4:	29 f4       	brne	.+10     	; 0x39b0 <free+0xa2>
    39a6:	f0 93 c0 07 	sts	0x07C0, r31	; 0x8007c0 <__flp+0x1>
    39aa:	e0 93 bf 07 	sts	0x07BF, r30	; 0x8007bf <__flp>
    39ae:	42 c0       	rjmp	.+132    	; 0x3a34 <free+0x126>
    39b0:	13 96       	adiw	r26, 0x03	; 3
    39b2:	fc 93       	st	X, r31
    39b4:	ee 93       	st	-X, r30
    39b6:	12 97       	sbiw	r26, 0x02	; 2
    39b8:	ed 01       	movw	r28, r26
    39ba:	49 91       	ld	r20, Y+
    39bc:	59 91       	ld	r21, Y+
    39be:	9e 01       	movw	r18, r28
    39c0:	24 0f       	add	r18, r20
    39c2:	35 1f       	adc	r19, r21
    39c4:	e2 17       	cp	r30, r18
    39c6:	f3 07       	cpc	r31, r19
    39c8:	71 f4       	brne	.+28     	; 0x39e6 <free+0xd8>
    39ca:	80 81       	ld	r24, Z
    39cc:	91 81       	ldd	r25, Z+1	; 0x01
    39ce:	84 0f       	add	r24, r20
    39d0:	95 1f       	adc	r25, r21
    39d2:	02 96       	adiw	r24, 0x02	; 2
    39d4:	11 96       	adiw	r26, 0x01	; 1
    39d6:	9c 93       	st	X, r25
    39d8:	8e 93       	st	-X, r24
    39da:	82 81       	ldd	r24, Z+2	; 0x02
    39dc:	93 81       	ldd	r25, Z+3	; 0x03
    39de:	13 96       	adiw	r26, 0x03	; 3
    39e0:	9c 93       	st	X, r25
    39e2:	8e 93       	st	-X, r24
    39e4:	12 97       	sbiw	r26, 0x02	; 2
    39e6:	e0 e0       	ldi	r30, 0x00	; 0
    39e8:	f0 e0       	ldi	r31, 0x00	; 0
    39ea:	d8 01       	movw	r26, r16
    39ec:	12 96       	adiw	r26, 0x02	; 2
    39ee:	8d 91       	ld	r24, X+
    39f0:	9c 91       	ld	r25, X
    39f2:	13 97       	sbiw	r26, 0x03	; 3
    39f4:	00 97       	sbiw	r24, 0x00	; 0
    39f6:	19 f0       	breq	.+6      	; 0x39fe <free+0xf0>
    39f8:	f8 01       	movw	r30, r16
    39fa:	8c 01       	movw	r16, r24
    39fc:	f6 cf       	rjmp	.-20     	; 0x39ea <free+0xdc>
    39fe:	8d 91       	ld	r24, X+
    3a00:	9c 91       	ld	r25, X
    3a02:	98 01       	movw	r18, r16
    3a04:	2e 5f       	subi	r18, 0xFE	; 254
    3a06:	3f 4f       	sbci	r19, 0xFF	; 255
    3a08:	82 0f       	add	r24, r18
    3a0a:	93 1f       	adc	r25, r19
    3a0c:	20 91 bd 07 	lds	r18, 0x07BD	; 0x8007bd <__brkval>
    3a10:	30 91 be 07 	lds	r19, 0x07BE	; 0x8007be <__brkval+0x1>
    3a14:	28 17       	cp	r18, r24
    3a16:	39 07       	cpc	r19, r25
    3a18:	69 f4       	brne	.+26     	; 0x3a34 <free+0x126>
    3a1a:	30 97       	sbiw	r30, 0x00	; 0
    3a1c:	29 f4       	brne	.+10     	; 0x3a28 <free+0x11a>
    3a1e:	10 92 c0 07 	sts	0x07C0, r1	; 0x8007c0 <__flp+0x1>
    3a22:	10 92 bf 07 	sts	0x07BF, r1	; 0x8007bf <__flp>
    3a26:	02 c0       	rjmp	.+4      	; 0x3a2c <free+0x11e>
    3a28:	13 82       	std	Z+3, r1	; 0x03
    3a2a:	12 82       	std	Z+2, r1	; 0x02
    3a2c:	10 93 be 07 	sts	0x07BE, r17	; 0x8007be <__brkval+0x1>
    3a30:	00 93 bd 07 	sts	0x07BD, r16	; 0x8007bd <__brkval>
    3a34:	df 91       	pop	r29
    3a36:	cf 91       	pop	r28
    3a38:	1f 91       	pop	r17
    3a3a:	0f 91       	pop	r16
    3a3c:	08 95       	ret

00003a3e <realloc>:
    3a3e:	a0 e0       	ldi	r26, 0x00	; 0
    3a40:	b0 e0       	ldi	r27, 0x00	; 0
    3a42:	e5 e2       	ldi	r30, 0x25	; 37
    3a44:	fd e1       	ldi	r31, 0x1D	; 29
    3a46:	0c 94 21 1e 	jmp	0x3c42	; 0x3c42 <__prologue_saves__+0x8>
    3a4a:	ec 01       	movw	r28, r24
    3a4c:	00 97       	sbiw	r24, 0x00	; 0
    3a4e:	21 f4       	brne	.+8      	; 0x3a58 <realloc+0x1a>
    3a50:	cb 01       	movw	r24, r22
    3a52:	0e 94 f2 1b 	call	0x37e4	; 0x37e4 <malloc>
    3a56:	b8 c0       	rjmp	.+368    	; 0x3bc8 <realloc+0x18a>
    3a58:	fc 01       	movw	r30, r24
    3a5a:	e6 0f       	add	r30, r22
    3a5c:	f7 1f       	adc	r31, r23
    3a5e:	9c 01       	movw	r18, r24
    3a60:	22 50       	subi	r18, 0x02	; 2
    3a62:	31 09       	sbc	r19, r1
    3a64:	e2 17       	cp	r30, r18
    3a66:	f3 07       	cpc	r31, r19
    3a68:	08 f4       	brcc	.+2      	; 0x3a6c <realloc+0x2e>
    3a6a:	ac c0       	rjmp	.+344    	; 0x3bc4 <realloc+0x186>
    3a6c:	d9 01       	movw	r26, r18
    3a6e:	0d 91       	ld	r16, X+
    3a70:	1c 91       	ld	r17, X
    3a72:	11 97       	sbiw	r26, 0x01	; 1
    3a74:	06 17       	cp	r16, r22
    3a76:	17 07       	cpc	r17, r23
    3a78:	b0 f0       	brcs	.+44     	; 0x3aa6 <realloc+0x68>
    3a7a:	05 30       	cpi	r16, 0x05	; 5
    3a7c:	11 05       	cpc	r17, r1
    3a7e:	08 f4       	brcc	.+2      	; 0x3a82 <realloc+0x44>
    3a80:	9f c0       	rjmp	.+318    	; 0x3bc0 <realloc+0x182>
    3a82:	c8 01       	movw	r24, r16
    3a84:	04 97       	sbiw	r24, 0x04	; 4
    3a86:	86 17       	cp	r24, r22
    3a88:	97 07       	cpc	r25, r23
    3a8a:	08 f4       	brcc	.+2      	; 0x3a8e <realloc+0x50>
    3a8c:	99 c0       	rjmp	.+306    	; 0x3bc0 <realloc+0x182>
    3a8e:	02 50       	subi	r16, 0x02	; 2
    3a90:	11 09       	sbc	r17, r1
    3a92:	06 1b       	sub	r16, r22
    3a94:	17 0b       	sbc	r17, r23
    3a96:	01 93       	st	Z+, r16
    3a98:	11 93       	st	Z+, r17
    3a9a:	6d 93       	st	X+, r22
    3a9c:	7c 93       	st	X, r23
    3a9e:	cf 01       	movw	r24, r30
    3aa0:	0e 94 87 1c 	call	0x390e	; 0x390e <free>
    3aa4:	8d c0       	rjmp	.+282    	; 0x3bc0 <realloc+0x182>
    3aa6:	5b 01       	movw	r10, r22
    3aa8:	a0 1a       	sub	r10, r16
    3aaa:	b1 0a       	sbc	r11, r17
    3aac:	4c 01       	movw	r8, r24
    3aae:	80 0e       	add	r8, r16
    3ab0:	91 1e       	adc	r9, r17
    3ab2:	a0 91 bf 07 	lds	r26, 0x07BF	; 0x8007bf <__flp>
    3ab6:	b0 91 c0 07 	lds	r27, 0x07C0	; 0x8007c0 <__flp+0x1>
    3aba:	40 e0       	ldi	r20, 0x00	; 0
    3abc:	50 e0       	ldi	r21, 0x00	; 0
    3abe:	e1 2c       	mov	r14, r1
    3ac0:	f1 2c       	mov	r15, r1
    3ac2:	10 97       	sbiw	r26, 0x00	; 0
    3ac4:	09 f4       	brne	.+2      	; 0x3ac8 <realloc+0x8a>
    3ac6:	4a c0       	rjmp	.+148    	; 0x3b5c <realloc+0x11e>
    3ac8:	a8 15       	cp	r26, r8
    3aca:	b9 05       	cpc	r27, r9
    3acc:	d1 f5       	brne	.+116    	; 0x3b42 <realloc+0x104>
    3ace:	6d 90       	ld	r6, X+
    3ad0:	7c 90       	ld	r7, X
    3ad2:	11 97       	sbiw	r26, 0x01	; 1
    3ad4:	63 01       	movw	r12, r6
    3ad6:	82 e0       	ldi	r24, 0x02	; 2
    3ad8:	c8 0e       	add	r12, r24
    3ada:	d1 1c       	adc	r13, r1
    3adc:	ca 14       	cp	r12, r10
    3ade:	db 04       	cpc	r13, r11
    3ae0:	80 f1       	brcs	.+96     	; 0x3b42 <realloc+0x104>
    3ae2:	a3 01       	movw	r20, r6
    3ae4:	4a 19       	sub	r20, r10
    3ae6:	5b 09       	sbc	r21, r11
    3ae8:	6a 01       	movw	r12, r20
    3aea:	82 e0       	ldi	r24, 0x02	; 2
    3aec:	c8 0e       	add	r12, r24
    3aee:	d1 1c       	adc	r13, r1
    3af0:	12 96       	adiw	r26, 0x02	; 2
    3af2:	bc 90       	ld	r11, X
    3af4:	12 97       	sbiw	r26, 0x02	; 2
    3af6:	13 96       	adiw	r26, 0x03	; 3
    3af8:	ac 91       	ld	r26, X
    3afa:	b5 e0       	ldi	r27, 0x05	; 5
    3afc:	cb 16       	cp	r12, r27
    3afe:	d1 04       	cpc	r13, r1
    3b00:	40 f0       	brcs	.+16     	; 0x3b12 <realloc+0xd4>
    3b02:	b2 82       	std	Z+2, r11	; 0x02
    3b04:	a3 83       	std	Z+3, r26	; 0x03
    3b06:	51 83       	std	Z+1, r21	; 0x01
    3b08:	40 83       	st	Z, r20
    3b0a:	d9 01       	movw	r26, r18
    3b0c:	6d 93       	st	X+, r22
    3b0e:	7c 93       	st	X, r23
    3b10:	0a c0       	rjmp	.+20     	; 0x3b26 <realloc+0xe8>
    3b12:	0e 5f       	subi	r16, 0xFE	; 254
    3b14:	1f 4f       	sbci	r17, 0xFF	; 255
    3b16:	c3 01       	movw	r24, r6
    3b18:	80 0f       	add	r24, r16
    3b1a:	91 1f       	adc	r25, r17
    3b1c:	f9 01       	movw	r30, r18
    3b1e:	91 83       	std	Z+1, r25	; 0x01
    3b20:	80 83       	st	Z, r24
    3b22:	eb 2d       	mov	r30, r11
    3b24:	fa 2f       	mov	r31, r26
    3b26:	e1 14       	cp	r14, r1
    3b28:	f1 04       	cpc	r15, r1
    3b2a:	31 f0       	breq	.+12     	; 0x3b38 <realloc+0xfa>
    3b2c:	d7 01       	movw	r26, r14
    3b2e:	13 96       	adiw	r26, 0x03	; 3
    3b30:	fc 93       	st	X, r31
    3b32:	ee 93       	st	-X, r30
    3b34:	12 97       	sbiw	r26, 0x02	; 2
    3b36:	44 c0       	rjmp	.+136    	; 0x3bc0 <realloc+0x182>
    3b38:	f0 93 c0 07 	sts	0x07C0, r31	; 0x8007c0 <__flp+0x1>
    3b3c:	e0 93 bf 07 	sts	0x07BF, r30	; 0x8007bf <__flp>
    3b40:	3f c0       	rjmp	.+126    	; 0x3bc0 <realloc+0x182>
    3b42:	8d 91       	ld	r24, X+
    3b44:	9c 91       	ld	r25, X
    3b46:	11 97       	sbiw	r26, 0x01	; 1
    3b48:	48 17       	cp	r20, r24
    3b4a:	59 07       	cpc	r21, r25
    3b4c:	08 f4       	brcc	.+2      	; 0x3b50 <realloc+0x112>
    3b4e:	ac 01       	movw	r20, r24
    3b50:	7d 01       	movw	r14, r26
    3b52:	12 96       	adiw	r26, 0x02	; 2
    3b54:	0d 90       	ld	r0, X+
    3b56:	bc 91       	ld	r27, X
    3b58:	a0 2d       	mov	r26, r0
    3b5a:	b3 cf       	rjmp	.-154    	; 0x3ac2 <realloc+0x84>
    3b5c:	80 91 bd 07 	lds	r24, 0x07BD	; 0x8007bd <__brkval>
    3b60:	90 91 be 07 	lds	r25, 0x07BE	; 0x8007be <__brkval+0x1>
    3b64:	88 15       	cp	r24, r8
    3b66:	99 05       	cpc	r25, r9
    3b68:	e1 f4       	brne	.+56     	; 0x3ba2 <realloc+0x164>
    3b6a:	46 17       	cp	r20, r22
    3b6c:	57 07       	cpc	r21, r23
    3b6e:	c8 f4       	brcc	.+50     	; 0x3ba2 <realloc+0x164>
    3b70:	80 91 00 01 	lds	r24, 0x0100	; 0x800100 <__data_start>
    3b74:	90 91 01 01 	lds	r25, 0x0101	; 0x800101 <__data_start+0x1>
    3b78:	00 97       	sbiw	r24, 0x00	; 0
    3b7a:	41 f4       	brne	.+16     	; 0x3b8c <realloc+0x14e>
    3b7c:	8d b7       	in	r24, 0x3d	; 61
    3b7e:	9e b7       	in	r25, 0x3e	; 62
    3b80:	40 91 04 01 	lds	r20, 0x0104	; 0x800104 <__malloc_margin>
    3b84:	50 91 05 01 	lds	r21, 0x0105	; 0x800105 <__malloc_margin+0x1>
    3b88:	84 1b       	sub	r24, r20
    3b8a:	95 0b       	sbc	r25, r21
    3b8c:	e8 17       	cp	r30, r24
    3b8e:	f9 07       	cpc	r31, r25
    3b90:	c8 f4       	brcc	.+50     	; 0x3bc4 <realloc+0x186>
    3b92:	f0 93 be 07 	sts	0x07BE, r31	; 0x8007be <__brkval+0x1>
    3b96:	e0 93 bd 07 	sts	0x07BD, r30	; 0x8007bd <__brkval>
    3b9a:	f9 01       	movw	r30, r18
    3b9c:	71 83       	std	Z+1, r23	; 0x01
    3b9e:	60 83       	st	Z, r22
    3ba0:	0f c0       	rjmp	.+30     	; 0x3bc0 <realloc+0x182>
    3ba2:	cb 01       	movw	r24, r22
    3ba4:	0e 94 f2 1b 	call	0x37e4	; 0x37e4 <malloc>
    3ba8:	7c 01       	movw	r14, r24
    3baa:	00 97       	sbiw	r24, 0x00	; 0
    3bac:	59 f0       	breq	.+22     	; 0x3bc4 <realloc+0x186>
    3bae:	a8 01       	movw	r20, r16
    3bb0:	be 01       	movw	r22, r28
    3bb2:	0e 94 f6 1d 	call	0x3bec	; 0x3bec <memcpy>
    3bb6:	ce 01       	movw	r24, r28
    3bb8:	0e 94 87 1c 	call	0x390e	; 0x390e <free>
    3bbc:	c7 01       	movw	r24, r14
    3bbe:	04 c0       	rjmp	.+8      	; 0x3bc8 <realloc+0x18a>
    3bc0:	ce 01       	movw	r24, r28
    3bc2:	02 c0       	rjmp	.+4      	; 0x3bc8 <realloc+0x18a>
    3bc4:	80 e0       	ldi	r24, 0x00	; 0
    3bc6:	90 e0       	ldi	r25, 0x00	; 0
    3bc8:	cd b7       	in	r28, 0x3d	; 61
    3bca:	de b7       	in	r29, 0x3e	; 62
    3bcc:	ee e0       	ldi	r30, 0x0E	; 14
    3bce:	0c 94 3d 1e 	jmp	0x3c7a	; 0x3c7a <__epilogue_restores__+0x8>

00003bd2 <abort>:
    3bd2:	81 e0       	ldi	r24, 0x01	; 1
    3bd4:	90 e0       	ldi	r25, 0x00	; 0
    3bd6:	f8 94       	cli
    3bd8:	0c 94 54 1e 	jmp	0x3ca8	; 0x3ca8 <__do_global_dtors>

00003bdc <toupper>:
    3bdc:	91 11       	cpse	r25, r1
    3bde:	08 95       	ret
    3be0:	81 56       	subi	r24, 0x61	; 97
    3be2:	8a 51       	subi	r24, 0x1A	; 26
    3be4:	08 f4       	brcc	.+2      	; 0x3be8 <toupper+0xc>
    3be6:	80 52       	subi	r24, 0x20	; 32
    3be8:	85 58       	subi	r24, 0x85	; 133
    3bea:	08 95       	ret

00003bec <memcpy>:
    3bec:	fb 01       	movw	r30, r22
    3bee:	dc 01       	movw	r26, r24
    3bf0:	02 c0       	rjmp	.+4      	; 0x3bf6 <memcpy+0xa>
    3bf2:	01 90       	ld	r0, Z+
    3bf4:	0d 92       	st	X+, r0
    3bf6:	41 50       	subi	r20, 0x01	; 1
    3bf8:	50 40       	sbci	r21, 0x00	; 0
    3bfa:	d8 f7       	brcc	.-10     	; 0x3bf2 <memcpy+0x6>
    3bfc:	08 95       	ret

00003bfe <strcmp>:
    3bfe:	fb 01       	movw	r30, r22
    3c00:	dc 01       	movw	r26, r24
    3c02:	8d 91       	ld	r24, X+
    3c04:	01 90       	ld	r0, Z+
    3c06:	80 19       	sub	r24, r0
    3c08:	01 10       	cpse	r0, r1
    3c0a:	d9 f3       	breq	.-10     	; 0x3c02 <strcmp+0x4>
    3c0c:	99 0b       	sbc	r25, r25
    3c0e:	08 95       	ret

00003c10 <strcpy>:
    3c10:	fb 01       	movw	r30, r22
    3c12:	dc 01       	movw	r26, r24
    3c14:	01 90       	ld	r0, Z+
    3c16:	0d 92       	st	X+, r0
    3c18:	00 20       	and	r0, r0
    3c1a:	e1 f7       	brne	.-8      	; 0x3c14 <strcpy+0x4>
    3c1c:	08 95       	ret

00003c1e <strncmp>:
    3c1e:	fb 01       	movw	r30, r22
    3c20:	dc 01       	movw	r26, r24
    3c22:	41 50       	subi	r20, 0x01	; 1
    3c24:	50 40       	sbci	r21, 0x00	; 0
    3c26:	30 f0       	brcs	.+12     	; 0x3c34 <strncmp+0x16>
    3c28:	8d 91       	ld	r24, X+
    3c2a:	01 90       	ld	r0, Z+
    3c2c:	80 19       	sub	r24, r0
    3c2e:	19 f4       	brne	.+6      	; 0x3c36 <strncmp+0x18>
    3c30:	00 20       	and	r0, r0
    3c32:	b9 f7       	brne	.-18     	; 0x3c22 <strncmp+0x4>
    3c34:	88 1b       	sub	r24, r24
    3c36:	99 0b       	sbc	r25, r25
    3c38:	08 95       	ret

00003c3a <__prologue_saves__>:
    3c3a:	2f 92       	push	r2
    3c3c:	3f 92       	push	r3
    3c3e:	4f 92       	push	r4
    3c40:	5f 92       	push	r5
    3c42:	6f 92       	push	r6
    3c44:	7f 92       	push	r7
    3c46:	8f 92       	push	r8
    3c48:	9f 92       	push	r9
    3c4a:	af 92       	push	r10
    3c4c:	bf 92       	push	r11
    3c4e:	cf 92       	push	r12
    3c50:	df 92       	push	r13
    3c52:	ef 92       	push	r14
    3c54:	ff 92       	push	r15
    3c56:	0f 93       	push	r16
    3c58:	1f 93       	push	r17
    3c5a:	cf 93       	push	r28
    3c5c:	df 93       	push	r29
    3c5e:	cd b7       	in	r28, 0x3d	; 61
    3c60:	de b7       	in	r29, 0x3e	; 62
    3c62:	ca 1b       	sub	r28, r26
    3c64:	db 0b       	sbc	r29, r27
    3c66:	0f b6       	in	r0, 0x3f	; 63
    3c68:	f8 94       	cli
    3c6a:	de bf       	out	0x3e, r29	; 62
    3c6c:	0f be       	out	0x3f, r0	; 63
    3c6e:	cd bf       	out	0x3d, r28	; 61
    3c70:	09 94       	ijmp

00003c72 <__epilogue_restores__>:
    3c72:	2a 88       	ldd	r2, Y+18	; 0x12
    3c74:	39 88       	ldd	r3, Y+17	; 0x11
    3c76:	48 88       	ldd	r4, Y+16	; 0x10
    3c78:	5f 84       	ldd	r5, Y+15	; 0x0f
    3c7a:	6e 84       	ldd	r6, Y+14	; 0x0e
    3c7c:	7d 84       	ldd	r7, Y+13	; 0x0d
    3c7e:	8c 84       	ldd	r8, Y+12	; 0x0c
    3c80:	9b 84       	ldd	r9, Y+11	; 0x0b
    3c82:	aa 84       	ldd	r10, Y+10	; 0x0a
    3c84:	b9 84       	ldd	r11, Y+9	; 0x09
    3c86:	c8 84       	ldd	r12, Y+8	; 0x08
    3c88:	df 80       	ldd	r13, Y+7	; 0x07
    3c8a:	ee 80       	ldd	r14, Y+6	; 0x06
    3c8c:	fd 80       	ldd	r15, Y+5	; 0x05
    3c8e:	0c 81       	ldd	r16, Y+4	; 0x04
    3c90:	1b 81       	ldd	r17, Y+3	; 0x03
    3c92:	aa 81       	ldd	r26, Y+2	; 0x02
    3c94:	b9 81       	ldd	r27, Y+1	; 0x01
    3c96:	ce 0f       	add	r28, r30
    3c98:	d1 1d       	adc	r29, r1
    3c9a:	0f b6       	in	r0, 0x3f	; 63
    3c9c:	f8 94       	cli
    3c9e:	de bf       	out	0x3e, r29	; 62
    3ca0:	0f be       	out	0x3f, r0	; 63
    3ca2:	cd bf       	out	0x3d, r28	; 61
    3ca4:	ed 01       	movw	r28, r26
    3ca6:	08 95       	ret

00003ca8 <__do_global_dtors>:
    3ca8:	12 e0       	ldi	r17, 0x02	; 2
    3caa:	cf ed       	ldi	r28, 0xDF	; 223
    3cac:	d2 e0       	ldi	r29, 0x02	; 2
    3cae:	04 c0       	rjmp	.+8      	; 0x3cb8 <__do_global_dtors+0x10>
    3cb0:	fe 01       	movw	r30, r28
    3cb2:	0e 94 ec 1b 	call	0x37d8	; 0x37d8 <__tablejump2__>
    3cb6:	21 96       	adiw	r28, 0x01	; 1
    3cb8:	c0 3e       	cpi	r28, 0xE0	; 224
    3cba:	d1 07       	cpc	r29, r17
    3cbc:	c9 f7       	brne	.-14     	; 0x3cb0 <__do_global_dtors+0x8>
    3cbe:	f8 94       	cli

00003cc0 <__stop_program>:
    3cc0:	ff cf       	rjmp	.-2      	; 0x3cc0 <__stop_program>
